EXPORTS
    DllMain @1
    _ZN3cck5Clock10GetALLTimeEv @2
    _ZN3cck5Clock11m_useHTimerE @3 DATA
    _ZN3cck5Clock11static_lockE @4 DATA
    _ZN3cck5Clock12checkEslapseEd @5
    _ZN3cck5Clock17checkEslapseResetEd @6
    _ZN3cck5Clock3NowEv @7
    _ZN3cck5Clock4StopEv @8
    _ZN3cck5Clock5PauseEv @9
    _ZN3cck5Clock5StartEv @10
    _ZN3cck5Clock6ResumeEv @11
    _ZN3cck5Clock6isStopEv @12
    _ZN3cck5Clock8m_cpuFeqE @13 DATA
    _ZN3cck5Clock9GetOffsetEv @14
    _ZN3cck5Clock9useHTimerE @15 DATA
    _ZN3cck5ClockC1Eb @16
    _ZN3cck5ClockC2Eb @17
    _ZN4alib10LogFactory3logEiNSt7__cxx1112basic_stringIcSt11char_traitsIcESaIcEEE @18
    _ZN4alib10LogFactory4infoENSt7__cxx1112basic_stringIcSt11char_traitsIcESaIcEEE @19
    _ZN4alib10LogFactory4warnENSt7__cxx1112basic_stringIcSt11char_traitsIcESaIcEEE @20
    _ZN4alib10LogFactory5debugENSt7__cxx1112basic_stringIcSt11char_traitsIcESaIcEEE @21
    _ZN4alib10LogFactory5errorENSt7__cxx1112basic_stringIcSt11char_traitsIcESaIcEEE @22
    _ZN4alib10LogFactory5traceENSt7__cxx1112basic_stringIcSt11char_traitsIcESaIcEEE @23
    _ZN4alib10LogFactory8criticalENSt7__cxx1112basic_stringIcSt11char_traitsIcESaIcEEE @24
    _ZN4alib10LogFactoryC1ENSt7__cxx1112basic_stringIcSt11char_traitsIcESaIcEEEbPNS_8LogSaverE @25
    _ZN4alib10LogFactoryC2ENSt7__cxx1112basic_stringIcSt11char_traitsIcESaIcEEEbPNS_8LogSaverE @26
    _ZN4alib10Translator10FTranslateEPKc @27
    _ZN4alib10Translator10FTranslateERKNSt7__cxx1112basic_stringIcSt11char_traitsIcESaIcEEE @28
    _ZN4alib10Translator10MTranslateENSt7__cxx1112basic_stringIcSt11char_traitsIcESaIcEEES6_NS_13MultiEnString7EncTypeEz @29
    _ZN4alib10Translator10MTranslateERNSt7__cxx1112basic_stringIcSt11char_traitsIcESaIcEEES7_NS_13MultiEnString7EncTypeEPc @30
    _ZN4alib10Translator10iTranslateENSt7__cxx1112basic_stringIcSt11char_traitsIcESaIcEEES6_NS_13MultiEnString7EncTypeE @31
    _ZN4alib10Translator11iMTranslateENSt7__cxx1112basic_stringIcSt11char_traitsIcESaIcEEES6_NS_13MultiEnString7EncTypeEz @32
    _ZN4alib10Translator13LoadTranslateENSt7__cxx1112basic_stringIcSt11char_traitsIcESaIcEEE @33
    _ZN4alib10Translator13SetDefaultKeyEPKc @34
    _ZN4alib10Translator13SetDefaultKeyERKNSt7__cxx1112basic_stringIcSt11char_traitsIcESaIcEEE @35
    _ZN4alib10Translator14BuildLocalDataERSt13unordered_mapINSt7__cxx1112basic_stringIcSt11char_traitsIcESaIcEEEPNS_7astringESt4hashIS7_ESt8equal_toIS7_ESaISt4pairIKS7_S9_EEEPS1_IS7_S7_SB_SD_SaISE_ISF_S7_EEE @36
    _ZN4alib10Translator18LoadTranslateFilesENSt7__cxx1112basic_stringIcSt11char_traitsIcESaIcEEE @37
    _ZN4alib10Translator3getEv @38
    _ZN4alib10Translator3setEPS0_ @39
    _ZN4alib10Translator8instanceE @40 DATA
    _ZN4alib10Translator9TranslateENS_13MultiEnStringEPc @41
    _ZN4alib10Translator9TranslateENSt7__cxx1112basic_stringIcSt11char_traitsIcESaIcEEES6_NS_13MultiEnString7EncTypeE @42
    _ZN4alib10TranslatorC1Ebb @43
    _ZN4alib10TranslatorC2Ebb @44
    _ZN4alib12CriticalLockC1ER21_RTL_CRITICAL_SECTION @45
    _ZN4alib12CriticalLockC2ER21_RTL_CRITICAL_SECTION @46
    _ZN4alib12CriticalLockD1Ev @47
    _ZN4alib12CriticalLockD2Ev @48
    _ZN4alib13MultiEnString10GetUnicodeB5cxx11Ev @49
    _ZN4alib13MultiEnString6GetGBKB5cxx11Ev @50
    _ZN4alib13MultiEnString7GetUTF8B5cxx11Ev @51
    _ZN4alib13MultiEnString8GetUTF16B5cxx11Ev @52
    _ZN4alib13MultiEnStringC1ENSt7__cxx1112basic_stringIcSt11char_traitsIcESaIcEEENS0_7EncTypeE @53
    _ZN4alib13MultiEnStringC1ENSt7__cxx1112basic_stringIwSt11char_traitsIwESaIwEEENS0_7EncTypeE @54
    _ZN4alib13MultiEnStringC2ENSt7__cxx1112basic_stringIcSt11char_traitsIcESaIcEEENS0_7EncTypeE @55
    _ZN4alib13MultiEnStringC2ENSt7__cxx1112basic_stringIwSt11char_traitsIwESaIwEEENS0_7EncTypeE @56
    _ZN4alib4Util11StringsplitENSt7__cxx1112basic_stringIcSt11char_traitsIcESaIcEEES6_RSt6vectorIS6_SaIS6_EE @57
    _ZN4alib4Util12check_existsEPc @58
    _ZN4alib4Util12getFileNamesENSt7__cxx1112basic_stringIcSt11char_traitsIcESaIcEEERSt6vectorIS6_SaIS6_EE @59
    _ZN4alib4Util13colorfulPrintENSt7__cxx1112basic_stringIcSt11char_traitsIcESaIcEEEi @60
    _ZN4alib4Util16translateSecondsB5cxx11Ei @61
    _ZN4alib4Util18GetTranslateStringENSt7__cxx1112basic_stringIcSt11char_traitsIcESaIcEEE @62
    _ZN4alib4Util18Windows_getCPUInfoB5cxx11Ev @63
    _ZN4alib4Util20GetGlobalMemoryUsageEv @64
    _ZN4alib4Util21GetCurrentMemoryUsageEv @65
    _ZN4alib4Util4TrimERNSt7__cxx1112basic_stringIcSt11char_traitsIcESaIcEEE @66
    _ZN4alib4Util5splitERSt6vectorINSt7__cxx1112basic_stringIcSt11char_traitsIcESaIcEEESaIS7_EERKS7_c @67
    _ZN4alib4Util7getTimeB5cxx11Ev @68
    _ZN4alib4Util7readAllB5cxx11ERSt14basic_ifstreamIcSt11char_traitsIcEE @69
    _ZN4alib4Util8writeAllENSt7__cxx1112basic_stringIcSt11char_traitsIcESaIcEEES6_ @70
    _ZN4alib4Util9GBKToUTF8ERKNSt7__cxx1112basic_stringIcSt11char_traitsIcESaIcEEE @71
    _ZN4alib4Util9UTF8ToGBKERKNSt7__cxx1112basic_stringIcSt11char_traitsIcESaIcEEE @72
    _ZN4alib4Util9file_sizeEPc @73
    _ZN4alib7CPUInfoC1Ev @74
    _ZN4alib7CPUInfoC2Ev @75
    _ZN4alib7astring10gbk322utf8ERKNSt7__cxx1112basic_stringIcSt11char_traitsIcESaIcEEE @76
    _ZN4alib7astring10utf162utf8ERKNSt7__cxx1112basic_stringIwSt11char_traitsIwESaIwEEE @77
    _ZN4alib7astring10utf82gbk32ERKNSt7__cxx1112basic_stringIcSt11char_traitsIcESaIcEEE @78
    _ZN4alib7astring10utf82utf16ERKNSt7__cxx1112basic_stringIcSt11char_traitsIcESaIcEEE @79
    _ZN4alib7astring11gbk322utf16ERKNSt7__cxx1112basic_stringIcSt11char_traitsIcESaIcEEE @80
    _ZN4alib7astring11utf162gbk32ERKNSt7__cxx1112basic_stringIwSt11char_traitsIwESaIwEEE @81
    _ZN4alib7astring13transcodeAutoE @82 DATA
    _ZN4alib7astring14getAutoForwardEv @83
    _ZN4alib7astring14setAutoForwardEb @84
    _ZN4alib7astring16GetAutoTranslateEv @85
    _ZN4alib7astring16SetAutoTranslateEb @86
    _ZN4alib7astring5utf8pEv @87
    _ZN4alib7astring6appendEPKcj @88
    _ZN4alib7astring6appendEPKw @89
    _ZN4alib7astring6appendERNSt7__cxx1112basic_stringIcSt11char_traitsIcESaIcEEEj @90
    _ZN4alib7astring6appendERNSt7__cxx1112basic_stringIwSt11char_traitsIwESaIwEEE @91
    _ZN4alib7astring6appendERS0_ @92
    _ZN4alib7astring6assignEPKcj @93
    _ZN4alib7astring6assignEPKw @94
    _ZN4alib7astring6assignERNSt7__cxx1112basic_stringIcSt11char_traitsIcESaIcEEEj @95
    _ZN4alib7astring6assignERNSt7__cxx1112basic_stringIwSt11char_traitsIwESaIwEEE @96
    _ZN4alib7astring6assignERS0_ @97
    _ZN4alib7astring6gbk32pEv @98
    _ZN4alib7astring6lengthEj @99
    _ZN4alib7astring6utf16pEv @100
    _ZN4alib7astring7isDirtyEv @101
    _ZN4alib7astring7wlengthEv @102
    _ZN4alib7astring8i_appendERS0_ @103
    _ZN4alib7astring9markDirtyEv @104
    _ZN4alib7astring9transcodeEj @105
    _ZN4alib7astringC1EPKcj @106
    _ZN4alib7astringC1EPKw @107
    _ZN4alib7astringC1ERNSt7__cxx1112basic_stringIcSt11char_traitsIcESaIcEEEj @108
    _ZN4alib7astringC1ERNSt7__cxx1112basic_stringIwSt11char_traitsIwESaIwEEE @109
    _ZN4alib7astringC1ERS0_ @110
    _ZN4alib7astringC2EPKcj @111
    _ZN4alib7astringC2EPKw @112
    _ZN4alib7astringC2ERNSt7__cxx1112basic_stringIcSt11char_traitsIcESaIcEEEj @113
    _ZN4alib7astringC2ERNSt7__cxx1112basic_stringIwSt11char_traitsIwESaIwEEE @114
    _ZN4alib7astringC2ERS0_ @115
    _ZN4alib7astringaSEPKc @116
    _ZN4alib7astringaSEPw @117
    _ZN4alib7astringaSERNSt7__cxx1112basic_stringIcSt11char_traitsIcESaIcEEE @118
    _ZN4alib7astringaSERNSt7__cxx1112basic_stringIwSt11char_traitsIwESaIwEEE @119
    _ZN4alib7astringaSERS0_ @120
    _ZN4alib7astringpLEPKc @121
    _ZN4alib7astringpLEPw @122
    _ZN4alib7astringpLERNSt7__cxx1112basic_stringIcSt11char_traitsIcESaIcEEE @123
    _ZN4alib7astringpLERNSt7__cxx1112basic_stringIwSt11char_traitsIwESaIwEEE @124
    _ZN4alib7astringpLERS0_ @125
    _ZN4alib8Document5ParseENSt7__cxx1112basic_stringIcSt11char_traitsIcESaIcEEE @126
    _ZN4alib8Document7ForEachEPFvNSt7__cxx1112basic_stringIcSt11char_traitsIcESaIcEEES6_PvES7_ @127
    _ZN4alib8Document8GetValueENSt7__cxx1112basic_stringIcSt11char_traitsIcESaIcEEE @128
    _ZN4alib8Document9GetValueIESt6vectorINSt7__cxx1112basic_stringIcSt11char_traitsIcESaIcEEESaIS7_EE @129
    _ZN4alib8DocumentC1Ev @130
    _ZN4alib8DocumentC2Ev @131
    _ZN4alib8DocumentD1Ev @132
    _ZN4alib8DocumentD2Ev @133
    _ZN4alib8LogSaver13SetFileOutputENSt7__cxx1112basic_stringIcSt11char_traitsIcESaIcEEE @134
    _ZN4alib8LogSaver15OutputToConsoleEb @135
    _ZN4alib8LogSaver3getEv @136
    _ZN4alib8LogSaver3logEiRNSt7__cxx1112basic_stringIcSt11char_traitsIcESaIcEEES7_ @137
    _ZN4alib8LogSaver3setEPS0_ @138
    _ZN4alib8LogSaver5closeEv @139
    _ZN4alib8LogSaver5flushEv @140
    _ZN4alib8LogSaver7genTypeEi @141
    _ZN4alib8LogSaver7getMaskEv @142
    _ZN4alib8LogSaver7getModeEv @143
    _ZN4alib8LogSaver7makeMsgEiRNSt7__cxx1112basic_stringIcSt11char_traitsIcESaIcEEES7_b @144
    _ZN4alib8LogSaver8instanceE @145 DATA
    _ZN4alib8LogSaver8showLogsEi @146
    _ZN4alib8LogSaver9configureEi @147
    _ZN4alib8LogSaver9getStatusEv @148
    _ZN4alib8LogSaverC1Ebbi @149
    _ZN4alib8LogSaverC2Ebbi @150
    _ZN4alib8LogSaverD1Ev @151
    _ZN4alib8LogSaverD2Ev @152
