EXPORTS
    CreateFile_utf8 @1
    FLAC_API_SUPPORTS_OGG_FLAC @2 DATA
    FLAC__ChannelAssignmentString @3 DATA
    FLAC__ENTROPY_CODING_METHOD_PARTITIONED_RICE2_ESCAPE_PARAMETER @4 DATA
    FLAC__ENTROPY_CODING_METHOD_PARTITIONED_RICE2_PARAMETER_LEN @5 DATA
    FLAC__ENTROPY_CODING_METHOD_PARTITIONED_RICE_ESCAPE_PARAMETER @6 DATA
    FLAC__ENTROPY_CODING_METHOD_PARTITIONED_RICE_ORDER_LEN @7 DATA
    FLAC__ENTROPY_CODING_METHOD_PARTITIONED_RICE_PARAMETER_LEN @8 DATA
    FLAC__ENTROPY_CODING_METHOD_PARTITIONED_RICE_RAW_LEN @9 DATA
    FLAC__ENTROPY_CODING_METHOD_TYPE_LEN @10 DATA
    FLAC__EntropyCodingMethodTypeString @11 DATA
    FLAC__FRAME_FOOTER_CRC_LEN @12 DATA
    FLAC__FRAME_HEADER_BITS_PER_SAMPLE_LEN @13 DATA
    FLAC__FRAME_HEADER_BLOCKING_STRATEGY_LEN @14 DATA
    FLAC__FRAME_HEADER_BLOCK_SIZE_LEN @15 DATA
    FLAC__FRAME_HEADER_CHANNEL_ASSIGNMENT_LEN @16 DATA
    FLAC__FRAME_HEADER_CRC_LEN @17 DATA
    FLAC__FRAME_HEADER_RESERVED_LEN @18 DATA
    FLAC__FRAME_HEADER_SAMPLE_RATE_LEN @19 DATA
    FLAC__FRAME_HEADER_SYNC @20 DATA
    FLAC__FRAME_HEADER_SYNC_LEN @21 DATA
    FLAC__FRAME_HEADER_ZERO_PAD_LEN @22 DATA
    FLAC__FrameNumberTypeString @23 DATA
    FLAC__MD5Accumulate @24
    FLAC__MD5Final @25
    FLAC__MD5Init @26
    FLAC__MetadataTypeString @27 DATA
    FLAC__OGG_MAPPING_FIRST_HEADER_PACKET_TYPE @28 DATA
    FLAC__OGG_MAPPING_MAGIC @29 DATA
    FLAC__OGG_MAPPING_NUM_HEADERS_LEN @30 DATA
    FLAC__OGG_MAPPING_PACKET_TYPE_LEN @31 DATA
    FLAC__OGG_MAPPING_VERSION_MAJOR_LEN @32 DATA
    FLAC__OGG_MAPPING_VERSION_MINOR_LEN @33 DATA
    FLAC__STREAM_METADATA_APPLICATION_ID_LEN @34 DATA
    FLAC__STREAM_METADATA_CUESHEET_INDEX_NUMBER_LEN @35 DATA
    FLAC__STREAM_METADATA_CUESHEET_INDEX_OFFSET_LEN @36 DATA
    FLAC__STREAM_METADATA_CUESHEET_INDEX_RESERVED_LEN @37 DATA
    FLAC__STREAM_METADATA_CUESHEET_IS_CD_LEN @38 DATA
    FLAC__STREAM_METADATA_CUESHEET_LEAD_IN_LEN @39 DATA
    FLAC__STREAM_METADATA_CUESHEET_MEDIA_CATALOG_NUMBER_LEN @40 DATA
    FLAC__STREAM_METADATA_CUESHEET_NUM_TRACKS_LEN @41 DATA
    FLAC__STREAM_METADATA_CUESHEET_RESERVED_LEN @42 DATA
    FLAC__STREAM_METADATA_CUESHEET_TRACK_ISRC_LEN @43 DATA
    FLAC__STREAM_METADATA_CUESHEET_TRACK_NUMBER_LEN @44 DATA
    FLAC__STREAM_METADATA_CUESHEET_TRACK_NUM_INDICES_LEN @45 DATA
    FLAC__STREAM_METADATA_CUESHEET_TRACK_OFFSET_LEN @46 DATA
    FLAC__STREAM_METADATA_CUESHEET_TRACK_PRE_EMPHASIS_LEN @47 DATA
    FLAC__STREAM_METADATA_CUESHEET_TRACK_RESERVED_LEN @48 DATA
    FLAC__STREAM_METADATA_CUESHEET_TRACK_TYPE_LEN @49 DATA
    FLAC__STREAM_METADATA_IS_LAST_LEN @50 DATA
    FLAC__STREAM_METADATA_LENGTH_LEN @51 DATA
    FLAC__STREAM_METADATA_PICTURE_COLORS_LEN @52 DATA
    FLAC__STREAM_METADATA_PICTURE_DATA_LENGTH_LEN @53 DATA
    FLAC__STREAM_METADATA_PICTURE_DEPTH_LEN @54 DATA
    FLAC__STREAM_METADATA_PICTURE_DESCRIPTION_LENGTH_LEN @55 DATA
    FLAC__STREAM_METADATA_PICTURE_HEIGHT_LEN @56 DATA
    FLAC__STREAM_METADATA_PICTURE_MIME_TYPE_LENGTH_LEN @57 DATA
    FLAC__STREAM_METADATA_PICTURE_TYPE_LEN @58 DATA
    FLAC__STREAM_METADATA_PICTURE_WIDTH_LEN @59 DATA
    FLAC__STREAM_METADATA_SEEKPOINT_FRAME_SAMPLES_LEN @60 DATA
    FLAC__STREAM_METADATA_SEEKPOINT_PLACEHOLDER @61 DATA
    FLAC__STREAM_METADATA_SEEKPOINT_SAMPLE_NUMBER_LEN @62 DATA
    FLAC__STREAM_METADATA_SEEKPOINT_STREAM_OFFSET_LEN @63 DATA
    FLAC__STREAM_METADATA_STREAMINFO_BITS_PER_SAMPLE_LEN @64 DATA
    FLAC__STREAM_METADATA_STREAMINFO_CHANNELS_LEN @65 DATA
    FLAC__STREAM_METADATA_STREAMINFO_MAX_BLOCK_SIZE_LEN @66 DATA
    FLAC__STREAM_METADATA_STREAMINFO_MAX_FRAME_SIZE_LEN @67 DATA
    FLAC__STREAM_METADATA_STREAMINFO_MD5SUM_LEN @68 DATA
    FLAC__STREAM_METADATA_STREAMINFO_MIN_BLOCK_SIZE_LEN @69 DATA
    FLAC__STREAM_METADATA_STREAMINFO_MIN_FRAME_SIZE_LEN @70 DATA
    FLAC__STREAM_METADATA_STREAMINFO_SAMPLE_RATE_LEN @71 DATA
    FLAC__STREAM_METADATA_STREAMINFO_TOTAL_SAMPLES_LEN @72 DATA
    FLAC__STREAM_METADATA_TYPE_LEN @73 DATA
    FLAC__STREAM_METADATA_VORBIS_COMMENT_ENTRY_LENGTH_LEN @74 DATA
    FLAC__STREAM_METADATA_VORBIS_COMMENT_NUM_COMMENTS_LEN @75 DATA
    FLAC__STREAM_SYNC @76 DATA
    FLAC__STREAM_SYNC_LEN @77 DATA
    FLAC__STREAM_SYNC_STRING @78 DATA
    FLAC__SUBFRAME_LPC_QLP_COEFF_PRECISION_LEN @79 DATA
    FLAC__SUBFRAME_LPC_QLP_SHIFT_LEN @80 DATA
    FLAC__SUBFRAME_TYPE_CONSTANT_BYTE_ALIGNED_MASK @81 DATA
    FLAC__SUBFRAME_TYPE_FIXED_BYTE_ALIGNED_MASK @82 DATA
    FLAC__SUBFRAME_TYPE_LEN @83 DATA
    FLAC__SUBFRAME_TYPE_LPC_BYTE_ALIGNED_MASK @84 DATA
    FLAC__SUBFRAME_TYPE_VERBATIM_BYTE_ALIGNED_MASK @85 DATA
    FLAC__SUBFRAME_WASTED_BITS_FLAG_LEN @86 DATA
    FLAC__SUBFRAME_ZERO_PAD_LEN @87 DATA
    FLAC__StreamDecoderErrorStatusString @88 DATA
    FLAC__StreamDecoderInitStatusString @89 DATA
    FLAC__StreamDecoderLengthStatusString @90 DATA
    FLAC__StreamDecoderReadStatusString @91 DATA
    FLAC__StreamDecoderSeekStatusString @92 DATA
    FLAC__StreamDecoderStateString @93 DATA
    FLAC__StreamDecoderTellStatusString @94 DATA
    FLAC__StreamDecoderWriteStatusString @95 DATA
    FLAC__StreamEncoderInitStatusString @96 DATA
    FLAC__StreamEncoderReadStatusString @97 DATA
    FLAC__StreamEncoderSeekStatusString @98 DATA
    FLAC__StreamEncoderStateString @99 DATA
    FLAC__StreamEncoderTellStatusString @100 DATA
    FLAC__StreamEncoderWriteStatusString @101 DATA
    FLAC__StreamMetadata_Picture_TypeString @102 DATA
    FLAC__SubframeTypeString @103 DATA
    FLAC__VENDOR_STRING @104 DATA
    FLAC__VERSION_STRING @105 DATA
    FLAC__add_metadata_block @106
    FLAC__bitmath_silog2 @107
    FLAC__bitreader_bits_left_for_byte_alignment @108
    FLAC__bitreader_clear @109
    FLAC__bitreader_delete @110
    FLAC__bitreader_free @111
    FLAC__bitreader_get_input_bits_unconsumed @112
    FLAC__bitreader_get_read_crc16 @113
    FLAC__bitreader_init @114
    FLAC__bitreader_is_consumed_byte_aligned @115
    FLAC__bitreader_limit_invalidate @116
    FLAC__bitreader_limit_remaining @117
    FLAC__bitreader_new @118
    FLAC__bitreader_read_byte_block_aligned_no_crc @119
    FLAC__bitreader_read_raw_int32 @120
    FLAC__bitreader_read_raw_int64 @121
    FLAC__bitreader_read_raw_uint32 @122
    FLAC__bitreader_read_raw_uint64 @123
    FLAC__bitreader_read_rice_signed_block @124
    FLAC__bitreader_read_rice_signed_block_bmi2 @125
    FLAC__bitreader_read_uint32_little_endian @126
    FLAC__bitreader_read_unary_unsigned @127
    FLAC__bitreader_read_utf8_uint32 @128
    FLAC__bitreader_read_utf8_uint64 @129
    FLAC__bitreader_remove_limit @130
    FLAC__bitreader_reset_read_crc16 @131
    FLAC__bitreader_rewind_to_after_last_seen_framesync @132
    FLAC__bitreader_set_framesync_location @133
    FLAC__bitreader_set_limit @134
    FLAC__bitreader_skip_bits_no_crc @135
    FLAC__bitreader_skip_byte_block_aligned_no_crc @136
    FLAC__bitwriter_clear @137
    FLAC__bitwriter_delete @138
    FLAC__bitwriter_free @139
    FLAC__bitwriter_get_buffer @140
    FLAC__bitwriter_get_input_bits_unconsumed @141
    FLAC__bitwriter_get_write_crc16 @142
    FLAC__bitwriter_get_write_crc8 @143
    FLAC__bitwriter_init @144
    FLAC__bitwriter_is_byte_aligned @145
    FLAC__bitwriter_new @146
    FLAC__bitwriter_release_buffer @147
    FLAC__bitwriter_write_byte_block @148
    FLAC__bitwriter_write_raw_int32 @149
    FLAC__bitwriter_write_raw_int64 @150
    FLAC__bitwriter_write_raw_uint32 @151
    FLAC__bitwriter_write_raw_uint32_little_endian @152
    FLAC__bitwriter_write_raw_uint64 @153
    FLAC__bitwriter_write_rice_signed_block @154
    FLAC__bitwriter_write_unary_unsigned @155
    FLAC__bitwriter_write_utf8_uint32 @156
    FLAC__bitwriter_write_utf8_uint64 @157
    FLAC__bitwriter_write_zeroes @158
    FLAC__bitwriter_zero_pad_to_byte_boundary @159
    FLAC__cpu_info @160
    FLAC__crc16 @161
    FLAC__crc16_table @162 DATA
    FLAC__crc16_update_words32 @163
    FLAC__crc16_update_words64 @164
    FLAC__crc8 @165
    FLAC__crc8_table @166 DATA
    FLAC__fixed_compute_best_predictor @167
    FLAC__fixed_compute_best_predictor_intrin_sse2 @168
    FLAC__fixed_compute_best_predictor_intrin_ssse3 @169
    FLAC__fixed_compute_best_predictor_limit_residual @170
    FLAC__fixed_compute_best_predictor_limit_residual_33bit @171
    FLAC__fixed_compute_best_predictor_limit_residual_intrin_avx2 @172
    FLAC__fixed_compute_best_predictor_limit_residual_intrin_sse42 @173
    FLAC__fixed_compute_best_predictor_wide @174
    FLAC__fixed_compute_best_predictor_wide_intrin_avx2 @175
    FLAC__fixed_compute_residual @176
    FLAC__fixed_compute_residual_wide @177
    FLAC__fixed_compute_residual_wide_33bit @178
    FLAC__fixed_restore_signal @179
    FLAC__fixed_restore_signal_wide @180
    FLAC__fixed_restore_signal_wide_33bit @181
    FLAC__format_blocksize_is_subset @182
    FLAC__format_cuesheet_is_legal @183
    FLAC__format_entropy_coding_method_partitioned_rice_contents_clear @184
    FLAC__format_entropy_coding_method_partitioned_rice_contents_ensure_size @185
    FLAC__format_entropy_coding_method_partitioned_rice_contents_init @186
    FLAC__format_get_max_rice_partition_order_from_blocksize @187
    FLAC__format_get_max_rice_partition_order_from_blocksize_limited_max_and_predictor_order @188
    FLAC__format_picture_is_legal @189
    FLAC__format_sample_rate_is_subset @190
    FLAC__format_sample_rate_is_valid @191
    FLAC__format_seektable_is_legal @192
    FLAC__format_seektable_sort @193
    FLAC__format_vorbiscomment_entry_is_legal @194
    FLAC__format_vorbiscomment_entry_name_is_legal @195
    FLAC__format_vorbiscomment_entry_value_is_legal @196
    FLAC__frame_add_header @197
    FLAC__lpc_compute_autocorrelation @198
    FLAC__lpc_compute_autocorrelation_intrin_fma_lag_12 @199
    FLAC__lpc_compute_autocorrelation_intrin_fma_lag_16 @200
    FLAC__lpc_compute_autocorrelation_intrin_fma_lag_8 @201
    FLAC__lpc_compute_autocorrelation_intrin_sse2_lag_10 @202
    FLAC__lpc_compute_autocorrelation_intrin_sse2_lag_14 @203
    FLAC__lpc_compute_autocorrelation_intrin_sse2_lag_8 @204
    FLAC__lpc_compute_best_order @205
    FLAC__lpc_compute_expected_bits_per_residual_sample @206
    FLAC__lpc_compute_expected_bits_per_residual_sample_with_error_scale @207
    FLAC__lpc_compute_lp_coefficients @208
    FLAC__lpc_compute_residual_from_qlp_coefficients @209
    FLAC__lpc_compute_residual_from_qlp_coefficients_16_intrin_avx2 @210
    FLAC__lpc_compute_residual_from_qlp_coefficients_16_intrin_sse2 @211
    FLAC__lpc_compute_residual_from_qlp_coefficients_intrin_avx2 @212
    FLAC__lpc_compute_residual_from_qlp_coefficients_intrin_sse41 @213
    FLAC__lpc_compute_residual_from_qlp_coefficients_limit_residual @214
    FLAC__lpc_compute_residual_from_qlp_coefficients_limit_residual_33bit @215
    FLAC__lpc_compute_residual_from_qlp_coefficients_wide @216
    FLAC__lpc_compute_residual_from_qlp_coefficients_wide_intrin_avx2 @217
    FLAC__lpc_max_prediction_before_shift_bps @218
    FLAC__lpc_max_residual_bps @219
    FLAC__lpc_quantize_coefficients @220
    FLAC__lpc_restore_signal @221
    FLAC__lpc_restore_signal_wide @222
    FLAC__lpc_restore_signal_wide_33bit @223
    FLAC__lpc_window_data @224
    FLAC__lpc_window_data_partial @225
    FLAC__lpc_window_data_partial_wide @226
    FLAC__lpc_window_data_wide @227
    FLAC__memory_alloc_aligned @228
    FLAC__memory_alloc_aligned_int32_array @229
    FLAC__memory_alloc_aligned_int64_array @230
    FLAC__memory_alloc_aligned_real_array @231
    FLAC__memory_alloc_aligned_uint32_array @232
    FLAC__memory_alloc_aligned_uint64_array @233
    FLAC__ogg_decoder_aspect_finish @234
    FLAC__ogg_decoder_aspect_flush @235
    FLAC__ogg_decoder_aspect_init @236
    FLAC__ogg_decoder_aspect_read_callback_wrapper @237
    FLAC__ogg_decoder_aspect_reset @238
    FLAC__ogg_decoder_aspect_set_defaults @239
    FLAC__ogg_decoder_aspect_set_serial_number @240
    FLAC__ogg_encoder_aspect_finish @241
    FLAC__ogg_encoder_aspect_init @242
    FLAC__ogg_encoder_aspect_set_defaults @243
    FLAC__ogg_encoder_aspect_set_num_metadata @244
    FLAC__ogg_encoder_aspect_set_serial_number @245
    FLAC__ogg_encoder_aspect_write_callback_wrapper @246
    FLAC__precompute_partition_info_sums_intrin_avx2 @247
    FLAC__precompute_partition_info_sums_intrin_sse2 @248
    FLAC__precompute_partition_info_sums_intrin_ssse3 @249
    FLAC__stream_decoder_delete @250
    FLAC__stream_decoder_finish @251
    FLAC__stream_decoder_flush @252
    FLAC__stream_decoder_get_bits_per_sample @253
    FLAC__stream_decoder_get_blocksize @254
    FLAC__stream_decoder_get_channel_assignment @255
    FLAC__stream_decoder_get_channels @256
    FLAC__stream_decoder_get_client_data @257
    FLAC__stream_decoder_get_decode_position @258
    FLAC__stream_decoder_get_input_bytes_unconsumed @259
    FLAC__stream_decoder_get_md5_checking @260
    FLAC__stream_decoder_get_resolved_state_string @261
    FLAC__stream_decoder_get_sample_rate @262
    FLAC__stream_decoder_get_state @263
    FLAC__stream_decoder_get_total_samples @264
    FLAC__stream_decoder_init_FILE @265
    FLAC__stream_decoder_init_file @266
    FLAC__stream_decoder_init_ogg_FILE @267
    FLAC__stream_decoder_init_ogg_file @268
    FLAC__stream_decoder_init_ogg_stream @269
    FLAC__stream_decoder_init_stream @270
    FLAC__stream_decoder_new @271
    FLAC__stream_decoder_process_single @272
    FLAC__stream_decoder_process_until_end_of_metadata @273
    FLAC__stream_decoder_process_until_end_of_stream @274
    FLAC__stream_decoder_reset @275
    FLAC__stream_decoder_seek_absolute @276
    FLAC__stream_decoder_set_md5_checking @277
    FLAC__stream_decoder_set_metadata_ignore @278
    FLAC__stream_decoder_set_metadata_ignore_all @279
    FLAC__stream_decoder_set_metadata_ignore_application @280
    FLAC__stream_decoder_set_metadata_respond @281
    FLAC__stream_decoder_set_metadata_respond_all @282
    FLAC__stream_decoder_set_metadata_respond_application @283
    FLAC__stream_decoder_set_ogg_serial_number @284
    FLAC__stream_decoder_skip_single_frame @285
    FLAC__stream_encoder_delete @286
    FLAC__stream_encoder_disable_constant_subframes @287
    FLAC__stream_encoder_disable_fixed_subframes @288
    FLAC__stream_encoder_disable_instruction_set @289
    FLAC__stream_encoder_disable_verbatim_subframes @290
    FLAC__stream_encoder_finish @291
    FLAC__stream_encoder_get_bits_per_sample @292
    FLAC__stream_encoder_get_blocksize @293
    FLAC__stream_encoder_get_channels @294
    FLAC__stream_encoder_get_do_escape_coding @295
    FLAC__stream_encoder_get_do_exhaustive_model_search @296
    FLAC__stream_encoder_get_do_md5 @297
    FLAC__stream_encoder_get_do_mid_side_stereo @298
    FLAC__stream_encoder_get_do_qlp_coeff_prec_search @299
    FLAC__stream_encoder_get_limit_min_bitrate @300
    FLAC__stream_encoder_get_loose_mid_side_stereo @301
    FLAC__stream_encoder_get_max_lpc_order @302
    FLAC__stream_encoder_get_max_residual_partition_order @303
    FLAC__stream_encoder_get_min_residual_partition_order @304
    FLAC__stream_encoder_get_qlp_coeff_precision @305
    FLAC__stream_encoder_get_resolved_state_string @306
    FLAC__stream_encoder_get_rice_parameter_search_dist @307
    FLAC__stream_encoder_get_sample_rate @308
    FLAC__stream_encoder_get_state @309
    FLAC__stream_encoder_get_streamable_subset @310
    FLAC__stream_encoder_get_total_samples_estimate @311
    FLAC__stream_encoder_get_verify @312
    FLAC__stream_encoder_get_verify_decoder_error_stats @313
    FLAC__stream_encoder_get_verify_decoder_state @314
    FLAC__stream_encoder_init_FILE @315
    FLAC__stream_encoder_init_file @316
    FLAC__stream_encoder_init_ogg_FILE @317
    FLAC__stream_encoder_init_ogg_file @318
    FLAC__stream_encoder_init_ogg_stream @319
    FLAC__stream_encoder_init_stream @320
    FLAC__stream_encoder_new @321
    FLAC__stream_encoder_process @322
    FLAC__stream_encoder_process_interleaved @323
    FLAC__stream_encoder_set_apodization @324
    FLAC__stream_encoder_set_bits_per_sample @325
    FLAC__stream_encoder_set_blocksize @326
    FLAC__stream_encoder_set_channels @327
    FLAC__stream_encoder_set_compression_level @328
    FLAC__stream_encoder_set_do_escape_coding @329
    FLAC__stream_encoder_set_do_exhaustive_model_search @330
    FLAC__stream_encoder_set_do_md5 @331
    FLAC__stream_encoder_set_do_mid_side_stereo @332
    FLAC__stream_encoder_set_do_qlp_coeff_prec_search @333
    FLAC__stream_encoder_set_limit_min_bitrate @334
    FLAC__stream_encoder_set_loose_mid_side_stereo @335
    FLAC__stream_encoder_set_max_lpc_order @336
    FLAC__stream_encoder_set_max_residual_partition_order @337
    FLAC__stream_encoder_set_metadata @338
    FLAC__stream_encoder_set_min_residual_partition_order @339
    FLAC__stream_encoder_set_ogg_serial_number @340
    FLAC__stream_encoder_set_qlp_coeff_precision @341
    FLAC__stream_encoder_set_rice_parameter_search_dist @342
    FLAC__stream_encoder_set_sample_rate @343
    FLAC__stream_encoder_set_streamable_subset @344
    FLAC__stream_encoder_set_total_samples_estimate @345
    FLAC__stream_encoder_set_verify @346
    FLAC__subframe_add_constant @347
    FLAC__subframe_add_fixed @348
    FLAC__subframe_add_lpc @349
    FLAC__subframe_add_verbatim @350
    FLAC__window_bartlett @351
    FLAC__window_bartlett_hann @352
    FLAC__window_blackman @353
    FLAC__window_blackman_harris_4term_92db_sidelobe @354
    FLAC__window_connes @355
    FLAC__window_flattop @356
    FLAC__window_gauss @357
    FLAC__window_hamming @358
    FLAC__window_hann @359
    FLAC__window_kaiser_bessel @360
    FLAC__window_nuttall @361
    FLAC__window_partial_tukey @362
    FLAC__window_punchout_tukey @363
    FLAC__window_rectangle @364
    FLAC__window_triangle @365
    FLAC__window_tukey @366
    FLAC__window_welch @367
    FT_Activate_Size @368
    FT_Add_Default_Modules @369
    FT_Add_Module @370
    FT_Angle_Diff @371
    FT_Atan2 @372
    FT_Attach_File @373
    FT_Attach_Stream @374
    FT_Bitmap_Blend @375
    FT_Bitmap_Convert @376
    FT_Bitmap_Copy @377
    FT_Bitmap_Done @378
    FT_Bitmap_Embolden @379
    FT_Bitmap_Init @380
    FT_Bitmap_New @381
    FT_CMap_Done @382
    FT_CMap_New @383
    FT_CeilFix @384
    FT_Cos @385
    FT_DivFix @386
    FT_Done_Face @387
    FT_Done_FreeType @388
    FT_Done_Glyph @389
    FT_Done_GlyphSlot @390
    FT_Done_Library @391
    FT_Done_Memory @392
    FT_Done_Size @393
    FT_Error_String @394
    FT_Face_GetCharVariantIndex @395
    FT_Face_GetCharVariantIsDefault @396
    FT_Face_GetCharsOfVariant @397
    FT_Face_GetVariantSelectors @398
    FT_Face_GetVariantsOfChar @399
    FT_Face_Properties @400
    FT_FloorFix @401
    FT_Get_Advance @402
    FT_Get_Advances @403
    FT_Get_CMap_Format @404
    FT_Get_CMap_Language_ID @405
    FT_Get_Char_Index @406
    FT_Get_Charmap_Index @407
    FT_Get_Color_Glyph_Layer @408
    FT_Get_First_Char @409
    FT_Get_Font_Format @410
    FT_Get_Glyph @411
    FT_Get_Glyph_Name @412
    FT_Get_Kerning @413
    FT_Get_Module @414
    FT_Get_Module_Interface @415
    FT_Get_Name_Index @416
    FT_Get_Next_Char @417
    FT_Get_Postscript_Name @418
    FT_Get_Renderer @419
    FT_Get_Sfnt_LangTag @420
    FT_Get_Sfnt_Name @421
    FT_Get_Sfnt_Name_Count @422
    FT_Get_Sfnt_Table @423
    FT_Get_SubGlyph_Info @424
    FT_Get_Track_Kerning @425
    FT_Get_TrueType_Engine_Type @426
    FT_Get_X11_Font_Format @427
    FT_GlyphLoader_Add @428
    FT_GlyphLoader_CheckPoints @429
    FT_GlyphLoader_CheckSubGlyphs @430
    FT_GlyphLoader_CreateExtra @431
    FT_GlyphLoader_Done @432
    FT_GlyphLoader_New @433
    FT_GlyphLoader_Prepare @434
    FT_GlyphLoader_Reset @435
    FT_GlyphLoader_Rewind @436
    FT_GlyphSlot_Own_Bitmap @437
    FT_Glyph_Copy @438
    FT_Glyph_Get_CBox @439
    FT_Glyph_To_Bitmap @440
    FT_Glyph_Transform @441
    FT_Gzip_Uncompress @442
    FT_Hypot @443
    FT_Init_FreeType @444
    FT_Library_SetLcdFilter @445
    FT_Library_SetLcdFilterWeights @446
    FT_Library_SetLcdGeometry @447
    FT_Library_Version @448
    FT_List_Add @449
    FT_List_Finalize @450
    FT_List_Find @451
    FT_List_Insert @452
    FT_List_Iterate @453
    FT_List_Remove @454
    FT_List_Up @455
    FT_Load_Char @456
    FT_Load_Glyph @457
    FT_Load_Sfnt_Table @458
    FT_Lookup_Renderer @459
    FT_Match_Size @460
    FT_Matrix_Check @461
    FT_Matrix_Invert @462
    FT_Matrix_Multiply @463
    FT_Matrix_Multiply_Scaled @464
    FT_MulDiv @465
    FT_MulDiv_No_Round @466
    FT_MulFix @467
    FT_New_Face @468
    FT_New_Glyph @469
    FT_New_GlyphSlot @470
    FT_New_Library @471
    FT_New_Memory @472
    FT_New_Memory_Face @473
    FT_New_Size @474
    FT_Open_Face @475
    FT_Outline_Check @476
    FT_Outline_Copy @477
    FT_Outline_Decompose @478
    FT_Outline_Done @479
    FT_Outline_Embolden @480
    FT_Outline_EmboldenXY @481
    FT_Outline_Get_Bitmap @482
    FT_Outline_Get_CBox @483
    FT_Outline_Get_Orientation @484
    FT_Outline_New @485
    FT_Outline_Render @486
    FT_Outline_Reverse @487
    FT_Outline_Transform @488
    FT_Outline_Translate @489
    FT_Palette_Data_Get @490
    FT_Palette_Select @491
    FT_Palette_Set_Foreground_Color @492
    FT_Property_Get @493
    FT_Property_Set @494
    FT_Raccess_Get_DataOffsets @495
    FT_Raccess_Get_HeaderInfo @496
    FT_Raccess_Guess @497
    FT_Reference_Face @498
    FT_Reference_Library @499
    FT_Remove_Module @500
    FT_Render_Glyph @501
    FT_Render_Glyph_Internal @502
    FT_Request_Metrics @503
    FT_Request_Size @504
    FT_RoundFix @505
    FT_Select_Charmap @506
    FT_Select_Metrics @507
    FT_Select_Size @508
    FT_Set_Char_Size @509
    FT_Set_Charmap @510
    FT_Set_Debug_Hook @511
    FT_Set_Default_Properties @512
    FT_Set_Pixel_Sizes @513
    FT_Set_Renderer @514
    FT_Set_Transform @515
    FT_Sfnt_Table_Info @516
    FT_Sin @517
    FT_Stream_Close @518
    FT_Stream_EnterFrame @519
    FT_Stream_ExitFrame @520
    FT_Stream_ExtractFrame @521
    FT_Stream_Free @522
    FT_Stream_GetChar @523
    FT_Stream_GetULong @524
    FT_Stream_GetULongLE @525
    FT_Stream_GetUOffset @526
    FT_Stream_GetUShort @527
    FT_Stream_GetUShortLE @528
    FT_Stream_New @529
    FT_Stream_Open @530
    FT_Stream_OpenGzip @531
    FT_Stream_OpenLZW @532
    FT_Stream_OpenMemory @533
    FT_Stream_Pos @534
    FT_Stream_Read @535
    FT_Stream_ReadAt @536
    FT_Stream_ReadChar @537
    FT_Stream_ReadFields @538
    FT_Stream_ReadULong @539
    FT_Stream_ReadULongLE @540
    FT_Stream_ReadUOffset @541
    FT_Stream_ReadUShort @542
    FT_Stream_ReadUShortLE @543
    FT_Stream_ReleaseFrame @544
    FT_Stream_Seek @545
    FT_Stream_Skip @546
    FT_Stream_TryRead @547
    FT_Tan @548
    FT_Trace_Disable @549
    FT_Trace_Enable @550
    FT_Trace_Get_Count @551
    FT_Trace_Get_Name @552
    FT_Vector_From_Polar @553
    FT_Vector_Length @554
    FT_Vector_NormLen @555
    FT_Vector_Polarize @556
    FT_Vector_Rotate @557
    FT_Vector_Transform @558
    FT_Vector_Transform_Scaled @559
    FT_Vector_Unit @560
    TT_New_Context @561
    TT_RunIns @562
    _Z34stbi__unpremultiply_on_load_threadi @563
    _ZN11MusicStructC1EOS_ @564
    _ZN11MusicStructC1ERKS_ @565
    _ZN11MusicStructD1Ev @566
    _ZN11MusicStructaSERKS_ @567
    _ZN15MusicController10AppendPlayENSt7__cxx1112basic_stringIcSt11char_traitsIcESaIcEEEbS5_b @568
    _ZN15MusicController6UpdateEv @569
    _ZN15MusicController8PauseAllEv @570
    _ZN15MusicController9ResumeAllEv @571
    _ZN15MusicControllerD1Ev @572
    _ZN15MusicControllerD2Ev @573
    _ZN15MusicControllerixENSt7__cxx1112basic_stringIcSt11char_traitsIcESaIcEEE @574
    _ZN2me3VBO11EnableArrayEj @575
    _ZN2me3VBO16AttributePointerEjjjhiPKv @576
    _ZN2me3VBO3SetEPfy @577
    _ZN2me3VBO3SetEPiy @578
    _ZN2me3VBO3SetESt6vectorIfSaIfEE @579
    _ZN2me3VBO3SetESt6vectorIiSaIiEE @580
    _ZN2me3VBO4bindEv @581
    _ZN2me3VBO5bind2Ej @582
    _ZN2me3VBO6GetVBOEv @583
    _ZN2me3VBO6SetVBOEj @584
    _ZN2me3VBO6unbindEv @585
    _ZN2me3VBO9CreateNewEv @586
    _ZN2me3VBOC1Ejjj @587
    _ZN2me3VBOC2Ejjj @588
    _ZN2me3VBOaSERSt6vectorIfSaIfEE @589
    _ZN2me3VBOaSERSt6vectorIiSaIiEE @590
    _ZN2me4Util10OnTerminalEv @591
    _ZN2me4Util10initedGLFWE @592 DATA
    _ZN2me4Util10initedGlewE @593 DATA
    _ZN2me4Util12GetShaderLogEjRNSt7__cxx1112basic_stringIcSt11char_traitsIcESaIcEEE @594
    _ZN2me4Util13GetProgramLogEjRNSt7__cxx1112basic_stringIcSt11char_traitsIcESaIcEEE @595
    _ZN2me4Util13InvokeConsoleEPKcbS2_l @596
    _ZN2me4Util14GetOpenGLErrorERNSt7__cxx1112basic_stringIcSt11char_traitsIcESaIcEEEPKc @597
    _ZN2me4Util14PrintShaderLogEj @598
    _ZN2me4Util15PrintProgramLogEj @599
    _ZN2me4Util16PrintOpenGLErrorEv @600
    _ZN2me4Util16RegisterTerminalEv @601
    _ZN2me4Util8InitGLFWEii @602
    _ZN2me4Util8InitGlewEv @603
    _ZN2me4Util8sessionsB5cxx11E @604 DATA
    _ZN2me4Util9file_sizeEPKc @605
    _ZN2me4VBOs10AppendVBOsEjj @606
    _ZN2me4VBOs7GetVBOsEv @607
    _ZN2me4VBOs9GetGLVBOsEv @608
    _ZN2me4VBOsC1Ev @609
    _ZN2me4VBOsC2Ev @610
    _ZN2me4VBOsixEj @611
    _ZN2me5Model10CreateVBOsERNS_3VBOES2_ @612
    _ZN2me5Model11SetBindingsEjj @613
    _ZN2me5Model14UploadToOpenGLEv @614
    _ZN2me5Model16LoadModelFromObjEPKc @615
    _ZN2me5Model19LoadModelFromStlBinEPKc @616
    _ZN2me5Model6UnbindEv @617
    _ZN2me5Model7SetDataEPSt6vectorIfSaIfEES4_S4_ @618
    _ZN2me5ModelC1Efff @619
    _ZN2me5ModelC2Efff @620
    _ZN2me6Camera10BuildOrthAEfffPvff @621
    _ZN2me6Camera10BuildOrthAEffffff @622
    _ZN2me6Camera12BuildPerspecEfPvff @623
    _ZN2me6Camera12BuildPerspecEffff @624
    _ZN2me6Camera12BuildPerspecEfffff @625
    _ZN2me6Camera14UpdateModelMatEv @626
    _ZN2me6Camera9BuildOrthEffffff @627
    _ZN2me6CameraC1Efffbb @628
    _ZN2me6CameraC2Efffbb @629
    _ZN2me6GlFont12CreateBufferEv @630
    _ZN2me6GlFont12LoadCharUTF8Em @631
    _ZN2me6GlFont13SetBufferSizeEjjj @632
    _ZN2me6GlFont13_FreeCharDataEj @633
    _ZN2me6GlFont13_LoadCharDataEmj @634
    _ZN2me6GlFont13_UpdateOpenGLEj @635
    _ZN2me6GlFont14LoadCharGB2312Em @636
    _ZN2me6GlFont15LoadCharUnicodeEm @637
    _ZN2me6GlFontC1ERNS_7MemFontEjjjjjj @638
    _ZN2me6GlFontC2ERNS_7MemFontEjjjjjj @639
    _ZN2me6GlFontD1Ev @640
    _ZN2me6GlFontD2Ev @641
    _ZN2me6Shader10GetProgramEv @642
    _ZN2me6Shader10GetUniformEPKc @643
    _ZN2me6Shader10GetUniformERKNSt7__cxx1112basic_stringIcSt11char_traitsIcESaIcEEE @644
    _ZN2me6Shader10LinkShaderEv @645
    _ZN2me6Shader12LoadFromFileEPKcjy @646
    _ZN2me6Shader12LoadFromFileERKNSt7__cxx1112basic_stringIcSt11char_traitsIcESaIcEEEj @647
    _ZN2me6Shader12LoadLinkLogFEPKcS2_S2_ @648
    _ZN2me6Shader12LoadLinkLogMEPKcS2_S2_ @649
    _ZN2me6Shader12LoadsFromMemEPKcS2_S2_ @650
    _ZN2me6Shader13CreateProgramEv @651
    _ZN2me6Shader13LoadsFromFileEPKcS2_S2_ @652
    _ZN2me6Shader14LoadFromMemoryEPKcjy @653
    _ZN2me6Shader14LoadFromMemoryERKNSt7__cxx1112basic_stringIcSt11char_traitsIcESaIcEEEj @654
    _ZN2me6Shader15GetVertexShaderEv @655
    _ZN2me6Shader17GetFragmentShaderEv @656
    _ZN2me6Shader17GetGeometryShaderEv @657
    _ZN2me6Shader3LogEv @658
    _ZN2me6Shader4bindEPS0_ @659
    _ZN2me6Shader4bindEv @660
    _ZN2me6Shader6GetLogB5cxx11Ev @661
    _ZN2me6Shader6unbindEv @662
    _ZN2me6Shader8StoreLogERNSt7__cxx1112basic_stringIcSt11char_traitsIcESaIcEEE @663
    _ZN2me6ShaderC1Eb @664
    _ZN2me6ShaderC2Eb @665
    _ZN2me6ShaderixEPKc @666
    _ZN2me6ShaderixERNSt7__cxx1112basic_stringIcSt11char_traitsIcESaIcEEE @667
    _ZN2me6Window10GetCurrentEv @668
    _ZN2me6Window10KeyInputedEii @669
    _ZN2me6Window10PollEventsEv @670
    _ZN2me6Window10SetUIRangeEffff @671
    _ZN2me6Window11MakeCurrentEPS0_ @672
    _ZN2me6Window11MakeCurrentEv @673
    _ZN2me6Window11ShouldCloseEv @674
    _ZN2me6Window12SetFrontFaceEj @675
    _ZN2me6Window13GetBufferSizeEv @676
    _ZN2me6Window13GetWindowSizeEv @677
    _ZN2me6Window13__Display_AftEv @678
    _ZN2me6Window13__Display_PreEv @679
    _ZN2me6Window15EnableCullFacesEv @680
    _ZN2me6Window15EnableDepthTestEj @681
    _ZN2me6Window15GetSystemHandleEv @682
    _ZN2me6Window15OnKeyPressEventEPFvRS0_dPNS_6CameraEE @683
    _ZN2me6Window15SetSwapIntervalEj @684
    _ZN2me6Window16DisableCullFacesEv @685
    _ZN2me6Window16DisableDepthTestEv @686
    _ZN2me6Window16SetPaintFunctionEPFvRS0_dPNS_6CameraEE @687
    _ZN2me6Window17GetFramerateLimitEv @688
    _ZN2me6Window17SetFramerateLimitEj @689
    _ZN2me6Window21SetCheckInputIntervalEj @690
    _ZN2me6Window22SetDiscreteKeyListenerEPFvP10GLFWwindowiiiiE @691
    _ZN2me6Window4DrawERNS_7GObjectEjj @692
    _ZN2me6Window5ClearEbb @693
    _ZN2me6Window6CreateEjjNSt7__cxx1112basic_stringIcSt11char_traitsIcESaIcEEEPS0_ @694
    _ZN2me6Window6CreateEjjPKcPS0_ @695
    _ZN2me6Window7DestroyEv @696
    _ZN2me6Window7DisplayEv @697
    _ZN2me6Window7GetGLFWEv @698
    _ZN2me6Window7currentE @699 DATA
    _ZN2me6Window9DrawModelERNS_5ModelEjjj @700
    _ZN2me6Window9UseCameraERNS_6CameraE @701
    _ZN2me6WindowC1Eii @702
    _ZN2me6WindowC2Eii @703
    _ZN2me7Changer5MatchEi @704
    _ZN2me7Changer8GetDirtyEv @705
    _ZN2me7Changer9MarkDirtyEi @706
    _ZN2me7ChangerC1Ev @707
    _ZN2me7ChangerC2Ev @708
    _ZN2me7Counter12GetCyclePerSEv @709
    _ZN2me7Counter4StopEv @710
    _ZN2me7Counter7ReStartEv @711
    _ZN2me7Counter7SimpOutEv @712
    _ZN2me7Counter8IncreaseEv @713
    _ZN2me7CounterC1Eb @714
    _ZN2me7CounterC2Eb @715
    _ZN2me7GObject11GetPositionEv @716
    _ZN2me7GObject11SetBindingsEjj @717
    _ZN2me7GObject11SetMovementEb @718
    _ZN2me7GObject11SetPositionERN3glm3vecILi3EfLNS1_9qualifierE0EEE @719
    _ZN2me7GObject11SetPositionEfff @720
    _ZN2me7GObject11SetRotationEfff @721
    _ZN2me7GObject14UpdateModelMatEv @722
    _ZN2me7GObject15MoveDirectionalEfff @723
    _ZN2me7GObject17UpdateRotationMatEv @724
    _ZN2me7GObject4MoveERN3glm3vecILi3EfLNS1_9qualifierE0EEE @725
    _ZN2me7GObject4MoveEfff @726
    _ZN2me7GObject5ScaleEfff @727
    _ZN2me7GObject6GetMatEv @728
    _ZN2me7GObject6GetVBOEv @729
    _ZN2me7GObject6RotateEfff @730
    _ZN2me7GObject6UpdateEj @731
    _ZN2me7GObject7BindVBOENS_3VBOES1_ @732
    _ZN2me7GObject7BuildMVEPN3glm3matILi4ELi4EfLNS1_9qualifierE0EEE @733
    _ZN2me7GObject7BuildMVEPS0_ @734
    _ZN2me7GObject8SetScaleEfff @735
    _ZN2me7GObjectC1Efffb @736
    _ZN2me7GObjectC2Efffb @737
    _ZN2me7MemFont10LoadCharExEmjj15FT_Render_Mode_b @738
    _ZN2me7MemFont10SetDefSizeEtt @739
    _ZN2me7MemFont11LoadFromMemEPhmj @740
    _ZN2me7MemFont12LoadFromFileEPKcj @741
    _ZN2me7MemFont12italicMatrixE @742 DATA
    _ZN2me7MemFont15SetDefAttributeEj @743
    _ZN2me7MemFont18SetDefBoldStrengthEtt @744
    _ZN2me7MemFont6initedE @745 DATA
    _ZN2me7MemFont7GenCharERP12FT_GlyphRec_mj15FT_Render_Mode_b @746
    _ZN2me7MemFont7libraryE @747 DATA
    _ZN2me7MemFont8LoadCharEmj15FT_Render_Mode_b @748
    _ZN2me7MemFont9SetFormatEj @749
    _ZN2me7MemFontC1Ejjj @750
    _ZN2me7MemFontC2Ejjj @751
    _ZN2me7MemFontD1Ev @752
    _ZN2me7MemFontD2Ev @753
    _ZN2me7Program6UpdateEv @754
    _ZN2me7Program7PushObjESt6vectorIPNS_7GObjectESaIS3_EE @755
    _ZN2me7Texture10DeactivateEj @756
    _ZN2me7Texture11FreeTextureEv @757
    _ZN2me7Texture11LoadFromMemEPhyb @758
    _ZN2me7Texture11frameBufferE @759 DATA
    _ZN2me7Texture12LoadFromFileEPKc @760
    _ZN2me7Texture14ClearGLTextureEjjffff @761
    _ZN2me7Texture14UploadToOpenGLEbijj @762
    _ZN2me7Texture15InitFramebufferEv @763
    _ZN2me7Texture15UpdateGLTextureEPhjjjjjjb @764
    _ZN2me7Texture17UpdateGLTexture1DEPhjj @765
    _ZN2me7Texture19CreateTextureBufferEjPh @766
    _ZN2me7Texture20Create2DTextureArrayEjjjjjPh @767
    _ZN2me7Texture6initedE @768 DATA
    _ZN2me7Texture8ActivateEj @769
    _ZN2me7Texture8FreeDataEv @770
    _ZN2me7Texture9GetHandleEv @771
    _ZN2me7TextureC1Ev @772
    _ZN2me7TextureC2Ev @773
    _ZN2me7TextureD1Ev @774
    _ZN2me7TextureD2Ev @775
    _ZN2me7fGlFont14LoadCharGB2312Em @776
    _ZN2me7fGlFont16LoadCharGB2312ExEmjjj @777
    _ZN2me7fGlFontC1ERNS_7MemFontEj @778
    _ZN2me7fGlFontC2ERNS_7MemFontEj @779
    _ZN2me7fGlFontD1Ev @780
    _ZN2me7fGlFontD2Ev @781
    _ZN2me8Velocity11SetVelocityEf @782
    _ZN2me8Velocity3AddEiii @783
    _ZN2me8Velocity3NewEv @784
    _ZN2me8Velocity4FormEv @785
    _ZN2me8Velocity4MoveERNS_7GObjectEf @786
    _ZN2me8Velocity6MoveDrERNS_7GObjectEf @787
    _ZN2me8VelocityC1Ef @788
    _ZN2me8VelocityC2Ef @789
    _ZN2me9GLSupport5CheckENS0_6GLTypeE @790
    _ZN2me9GLSupport6EnableENS0_6GLTypeEf @791
    _ZN2me9ObjLoader11LoadFromObjEPKc @792
    _ZN2me9ObjLoader14LoadFromStlBinEPKc @793
    _ZN2me9ObjLoaderC1ERSt6vectorIfSaIfEES4_S4_Rj @794
    _ZN2me9ObjLoaderC2ERSt6vectorIfSaIfEES4_S4_Rj @795
    _ZN2me9ObjLoaderD1Ev @796
    _ZN2me9ShaderArg10GetProgramEv @797
    _ZN2me9ShaderArg10SetProgramEj @798
    _ZN2me9ShaderArg10UploadMat3EPf @799
    _ZN2me9ShaderArg10UploadMat3ERN3glm3matILi3ELi3EfLNS1_9qualifierE0EEE @800
    _ZN2me9ShaderArg10UploadVec2EPf @801
    _ZN2me9ShaderArg10UploadVec2ERN3glm3vecILi2EfLNS1_9qualifierE0EEE @802
    _ZN2me9ShaderArg10UploadVec2Eff @803
    _ZN2me9ShaderArg10UploadVec3EPf @804
    _ZN2me9ShaderArg10UploadVec3ERN3glm3vecILi3EfLNS1_9qualifierE0EEE @805
    _ZN2me9ShaderArg10UploadVec3Efff @806
    _ZN2me9ShaderArg10UploadVec4EPf @807
    _ZN2me9ShaderArg10UploadVec4ERN3glm3vecILi4EfLNS1_9qualifierE0EEE @808
    _ZN2me9ShaderArg10UploadVec4Effff @809
    _ZN2me9ShaderArg11IsAvailableEv @810
    _ZN2me9ShaderArg12UploadDoubleEd @811
    _ZN2me9ShaderArg9GetOffsetEv @812
    _ZN2me9ShaderArg9SetOffsetEj @813
    _ZN2me9ShaderArg9UploadIntEi @814
    _ZN2me9ShaderArg9UploadRawEN3glm3matILi3ELi3EfLNS1_9qualifierE0EEE @815
    _ZN2me9ShaderArg9UploadRawEN3glm3matILi4ELi4EfLNS1_9qualifierE0EEE @816
    _ZN2me9ShaderArg9UploadRawEN3glm3vecILi2EfLNS1_9qualifierE0EEE @817
    _ZN2me9ShaderArg9UploadRawEN3glm3vecILi3EfLNS1_9qualifierE0EEE @818
    _ZN2me9ShaderArg9UploadRawEN3glm3vecILi4EfLNS1_9qualifierE0EEE @819
    _ZN2me9ShaderArgC1Ejj @820
    _ZN2me9ShaderArgC2Ejj @821
    _ZN2me9ShaderArgaSEPf @822
    _ZN2me9ShaderArgaSERN3glm3matILi3ELi3EfLNS1_9qualifierE0EEE @823
    _ZN2me9ShaderArgaSERN3glm3matILi4ELi4EfLNS1_9qualifierE0EEE @824
    _ZN2me9ShaderArgaSERN3glm3vecILi2EfLNS1_9qualifierE0EEE @825
    _ZN2me9ShaderArgaSERN3glm3vecILi3EfLNS1_9qualifierE0EEE @826
    _ZN2me9ShaderArgaSERN3glm3vecILi4EfLNS1_9qualifierE0EEE @827
    _ZN2me9ShaderArgaSEf @828
    _ZN2me9ShaderArgaSEj @829
    _ZN2sf10AlResourceC1Ev @830
    _ZN2sf10AlResourceC2Ev @831
    _ZN2sf10AlResourceD1Ev @832
    _ZN2sf10AlResourceD2Ev @833
    _ZN2sf11SoundSource11setPositionERKNS_7Vector3IfEE @834
    _ZN2sf11SoundSource11setPositionEfff @835
    _ZN2sf11SoundSource14setAttenuationEf @836
    _ZN2sf11SoundSource14setMinDistanceEf @837
    _ZN2sf11SoundSource21setRelativeToListenerEb @838
    _ZN2sf11SoundSource8setPitchEf @839
    _ZN2sf11SoundSource9setVolumeEf @840
    _ZN2sf11SoundSourceC1ERKS0_ @841
    _ZN2sf11SoundSourceC1Ev @842
    _ZN2sf11SoundSourceC2ERKS0_ @843
    _ZN2sf11SoundSourceC2Ev @844
    _ZN2sf11SoundSourceD0Ev @845
    _ZN2sf11SoundSourceD1Ev @846
    _ZN2sf11SoundSourceD2Ev @847
    _ZN2sf11SoundSourceaSERKS0_ @848
    _ZN2sf11SoundStream10clearQueueEv @849
    _ZN2sf11SoundStream10initializeEjj @850
    _ZN2sf11SoundStream10streamDataEv @851
    _ZN2sf11SoundStream16setPlayingOffsetENS_4TimeE @852
    _ZN2sf11SoundStream17fillAndPushBufferEjb @853
    _ZN2sf11SoundStream21setProcessingIntervalENS_4TimeE @854
    _ZN2sf11SoundStream4playEv @855
    _ZN2sf11SoundStream4stopEv @856
    _ZN2sf11SoundStream5pauseEv @857
    _ZN2sf11SoundStream6onLoopEv @858
    _ZN2sf11SoundStream7setLoopEb @859
    _ZN2sf11SoundStream9fillQueueEv @860
    _ZN2sf11SoundStreamC1Ev @861
    _ZN2sf11SoundStreamC2Ev @862
    _ZN2sf11SoundStreamD0Ev @863
    _ZN2sf11SoundStreamD1Ev @864
    _ZN2sf11SoundStreamD2Ev @865
    _ZN2sf12microsecondsEx @866
    _ZN2sf12millisecondsEi @867
    _ZN2sf14InputSoundFile12openFromFileERKNSt7__cxx1112basic_stringIcSt11char_traitsIcESaIcEEE @868
    _ZN2sf14InputSoundFile14openFromMemoryEPKvy @869
    _ZN2sf14InputSoundFile14openFromStreamERNS_11InputStreamE @870
    _ZN2sf14InputSoundFile4readEPsy @871
    _ZN2sf14InputSoundFile4seekENS_4TimeE @872
    _ZN2sf14InputSoundFile4seekEy @873
    _ZN2sf14InputSoundFile5closeEv @874
    _ZN2sf14InputSoundFileC1Ev @875
    _ZN2sf14InputSoundFileC2Ev @876
    _ZN2sf14InputSoundFileD1Ev @877
    _ZN2sf14InputSoundFileD2Ev @878
    _ZN2sf15FileInputStream4openERKNSt7__cxx1112basic_stringIcSt11char_traitsIcESaIcEEE @879
    _ZN2sf15FileInputStream4readEPvx @880
    _ZN2sf15FileInputStream4seekEx @881
    _ZN2sf15FileInputStream4tellEv @882
    _ZN2sf15FileInputStream7getSizeEv @883
    _ZN2sf15FileInputStreamC1Ev @884
    _ZN2sf15FileInputStreamC2Ev @885
    _ZN2sf15FileInputStreamD0Ev @886
    _ZN2sf15FileInputStreamD1Ev @887
    _ZN2sf15FileInputStreamD2Ev @888
    _ZN2sf16SoundFileFactory22createReaderFromMemoryEPKvy @889
    _ZN2sf16SoundFileFactory22createReaderFromStreamERNS_11InputStreamE @890
    _ZN2sf16SoundFileFactory24createReaderFromFilenameERKNSt7__cxx1112basic_stringIcSt11char_traitsIcESaIcEEE @891
    _ZN2sf16SoundFileFactory24createWriterFromFilenameERKNSt7__cxx1112basic_stringIcSt11char_traitsIcESaIcEEE @892
    _ZN2sf16SoundFileFactory9s_readersE @893 DATA
    _ZN2sf16SoundFileFactory9s_writersE @894 DATA
    _ZN2sf17MemoryInputStream4openEPKvy @895
    _ZN2sf17MemoryInputStream4readEPvx @896
    _ZN2sf17MemoryInputStream4seekEx @897
    _ZN2sf17MemoryInputStream4tellEv @898
    _ZN2sf17MemoryInputStream7getSizeEv @899
    _ZN2sf17MemoryInputStreamC1Ev @900
    _ZN2sf17MemoryInputStreamC2Ev @901
    _ZN2sf17MemoryInputStreamD0Ev @902
    _ZN2sf17MemoryInputStreamD1Ev @903
    _ZN2sf3errEv @904
    _ZN2sf4LockC1ERNS_5MutexE @905
    _ZN2sf4LockC2ERNS_5MutexE @906
    _ZN2sf4LockD1Ev @907
    _ZN2sf4LockD2Ev @908
    _ZN2sf4Time4ZeroE @909 DATA
    _ZN2sf4TimeC1Ev @910
    _ZN2sf4TimeC1Ex @911
    _ZN2sf4TimeC2Ev @912
    _ZN2sf4TimeC2Ex @913
    _ZN2sf4priv10ThreadImpl10entryPointEPv @914
    _ZN2sf4priv10ThreadImpl4waitEv @915
    _ZN2sf4priv10ThreadImpl9terminateEv @916
    _ZN2sf4priv10ThreadImplC1EPNS_6ThreadE @917
    _ZN2sf4priv10ThreadImplC2EPNS_6ThreadE @918
    _ZN2sf4priv10ThreadImplD1Ev @919
    _ZN2sf4priv10ThreadImplD2Ev @920
    _ZN2sf4priv11AudioDevice11getPositionEv @921
    _ZN2sf4priv11AudioDevice11getUpVectorEv @922
    _ZN2sf4priv11AudioDevice11setPositionERKNS_7Vector3IfEE @923
    _ZN2sf4priv11AudioDevice11setUpVectorERKNS_7Vector3IfEE @924
    _ZN2sf4priv11AudioDevice12getDirectionEv @925
    _ZN2sf4priv11AudioDevice12setDirectionERKNS_7Vector3IfEE @926
    _ZN2sf4priv11AudioDevice15getGlobalVolumeEv @927
    _ZN2sf4priv11AudioDevice15setGlobalVolumeEf @928
    _ZN2sf4priv11AudioDevice20isExtensionSupportedERKNSt7__cxx1112basic_stringIcSt11char_traitsIcESaIcEEE @929
    _ZN2sf4priv11AudioDevice25getFormatFromChannelCountEj @930
    _ZN2sf4priv11AudioDeviceC1Ev @931
    _ZN2sf4priv11AudioDeviceC2Ev @932
    _ZN2sf4priv11AudioDeviceD1Ev @933
    _ZN2sf4priv11AudioDeviceD2Ev @934
    _ZN2sf4priv12createReaderINS0_18SoundFileReaderMp3EEEPNS_15SoundFileReaderEv @935
    _ZN2sf4priv12createReaderINS0_18SoundFileReaderOggEEEPNS_15SoundFileReaderEv @936
    _ZN2sf4priv12createReaderINS0_18SoundFileReaderWavEEEPNS_15SoundFileReaderEv @937
    _ZN2sf4priv12createReaderINS0_19SoundFileReaderFlacEEEPNS_15SoundFileReaderEv @938
    _ZN2sf4priv12createWriterINS0_18SoundFileWriterOggEEEPNS_15SoundFileWriterEv @939
    _ZN2sf4priv12createWriterINS0_18SoundFileWriterWavEEEPNS_15SoundFileWriterEv @940
    _ZN2sf4priv12createWriterINS0_19SoundFileWriterFlacEEEPNS_15SoundFileWriterEv @941
    _ZN2sf4priv16ThreadMemberFuncINS_11SoundStreamEE3runEv @942
    _ZN2sf4priv16ThreadMemberFuncINS_11SoundStreamEED0Ev @943
    _ZN2sf4priv16ThreadMemberFuncINS_11SoundStreamEED1Ev @944
    _ZN2sf4priv18SoundFileReaderMp34openERNS_11InputStreamERNS_15SoundFileReader4InfoE @945
    _ZN2sf4priv18SoundFileReaderMp34readEPsy @946
    _ZN2sf4priv18SoundFileReaderMp34seekEy @947
    _ZN2sf4priv18SoundFileReaderMp35checkERNS_11InputStreamE @948
    _ZN2sf4priv18SoundFileReaderMp3C1Ev @949
    _ZN2sf4priv18SoundFileReaderMp3C2Ev @950
    _ZN2sf4priv18SoundFileReaderMp3D0Ev @951
    _ZN2sf4priv18SoundFileReaderMp3D1Ev @952
    _ZN2sf4priv18SoundFileReaderMp3D2Ev @953
    _ZN2sf4priv18SoundFileReaderOgg4openERNS_11InputStreamERNS_15SoundFileReader4InfoE @954
    _ZN2sf4priv18SoundFileReaderOgg4readEPsy @955
    _ZN2sf4priv18SoundFileReaderOgg4seekEy @956
    _ZN2sf4priv18SoundFileReaderOgg5checkERNS_11InputStreamE @957
    _ZN2sf4priv18SoundFileReaderOgg5closeEv @958
    _ZN2sf4priv18SoundFileReaderOggC1Ev @959
    _ZN2sf4priv18SoundFileReaderOggC2Ev @960
    _ZN2sf4priv18SoundFileReaderOggD0Ev @961
    _ZN2sf4priv18SoundFileReaderOggD1Ev @962
    _ZN2sf4priv18SoundFileReaderOggD2Ev @963
    _ZN2sf4priv18SoundFileReaderWav11parseHeaderERNS_15SoundFileReader4InfoE @964
    _ZN2sf4priv18SoundFileReaderWav4openERNS_11InputStreamERNS_15SoundFileReader4InfoE @965
    _ZN2sf4priv18SoundFileReaderWav4readEPsy @966
    _ZN2sf4priv18SoundFileReaderWav4seekEy @967
    _ZN2sf4priv18SoundFileReaderWav5checkERNS_11InputStreamE @968
    _ZN2sf4priv18SoundFileReaderWavC1Ev @969
    _ZN2sf4priv18SoundFileReaderWavC2Ev @970
    _ZN2sf4priv18SoundFileReaderWavD0Ev @971
    _ZN2sf4priv18SoundFileReaderWavD1Ev @972
    _ZN2sf4priv18SoundFileWriterOgg11flushBlocksEv @973
    _ZN2sf4priv18SoundFileWriterOgg4openERKNSt7__cxx1112basic_stringIcSt11char_traitsIcESaIcEEEjj @974
    _ZN2sf4priv18SoundFileWriterOgg5checkERKNSt7__cxx1112basic_stringIcSt11char_traitsIcESaIcEEE @975
    _ZN2sf4priv18SoundFileWriterOgg5closeEv @976
    _ZN2sf4priv18SoundFileWriterOgg5writeEPKsy @977
    _ZN2sf4priv18SoundFileWriterOggC1Ev @978
    _ZN2sf4priv18SoundFileWriterOggC2Ev @979
    _ZN2sf4priv18SoundFileWriterOggD0Ev @980
    _ZN2sf4priv18SoundFileWriterOggD1Ev @981
    _ZN2sf4priv18SoundFileWriterOggD2Ev @982
    _ZN2sf4priv18SoundFileWriterWav11writeHeaderEjj @983
    _ZN2sf4priv18SoundFileWriterWav4openERKNSt7__cxx1112basic_stringIcSt11char_traitsIcESaIcEEEjj @984
    _ZN2sf4priv18SoundFileWriterWav5checkERKNSt7__cxx1112basic_stringIcSt11char_traitsIcESaIcEEE @985
    _ZN2sf4priv18SoundFileWriterWav5closeEv @986
    _ZN2sf4priv18SoundFileWriterWav5writeEPKsy @987
    _ZN2sf4priv18SoundFileWriterWavC1Ev @988
    _ZN2sf4priv18SoundFileWriterWavC2Ev @989
    _ZN2sf4priv18SoundFileWriterWavD0Ev @990
    _ZN2sf4priv18SoundFileWriterWavD1Ev @991
    _ZN2sf4priv18SoundFileWriterWavD2Ev @992
    _ZN2sf4priv19SoundFileReaderFlac4openERNS_11InputStreamERNS_15SoundFileReader4InfoE @993
    _ZN2sf4priv19SoundFileReaderFlac4readEPsy @994
    _ZN2sf4priv19SoundFileReaderFlac4seekEy @995
    _ZN2sf4priv19SoundFileReaderFlac5checkERNS_11InputStreamE @996
    _ZN2sf4priv19SoundFileReaderFlac5closeEv @997
    _ZN2sf4priv19SoundFileReaderFlacC1Ev @998
    _ZN2sf4priv19SoundFileReaderFlacC2Ev @999
    _ZN2sf4priv19SoundFileReaderFlacD0Ev @1000
    _ZN2sf4priv19SoundFileReaderFlacD1Ev @1001
    _ZN2sf4priv19SoundFileReaderFlacD2Ev @1002
    _ZN2sf4priv19SoundFileWriterFlac4openERKNSt7__cxx1112basic_stringIcSt11char_traitsIcESaIcEEEjj @1003
    _ZN2sf4priv19SoundFileWriterFlac5checkERKNSt7__cxx1112basic_stringIcSt11char_traitsIcESaIcEEE @1004
    _ZN2sf4priv19SoundFileWriterFlac5closeEv @1005
    _ZN2sf4priv19SoundFileWriterFlac5writeEPKsy @1006
    _ZN2sf4priv19SoundFileWriterFlacC1Ev @1007
    _ZN2sf4priv19SoundFileWriterFlacC2Ev @1008
    _ZN2sf4priv19SoundFileWriterFlacD0Ev @1009
    _ZN2sf4priv19SoundFileWriterFlacD1Ev @1010
    _ZN2sf4priv19SoundFileWriterFlacD2Ev @1011
    _ZN2sf4priv9MutexImpl4lockEv @1012
    _ZN2sf4priv9MutexImpl6unlockEv @1013
    _ZN2sf4priv9MutexImplC1Ev @1014
    _ZN2sf4priv9MutexImplC2Ev @1015
    _ZN2sf4priv9MutexImplD1Ev @1016
    _ZN2sf4priv9MutexImplD2Ev @1017
    _ZN2sf4priv9sleepImplENS_4TimeE @1018
    _ZN2sf5Music10initializeEv @1019
    _ZN2sf5Music12openFromFileERKNSt7__cxx1112basic_stringIcSt11char_traitsIcESaIcEEE @1020
    _ZN2sf5Music13setLoopPointsENS0_4SpanINS_4TimeEEE @1021
    _ZN2sf5Music14openFromMemoryEPKvy @1022
    _ZN2sf5Music14openFromStreamERNS_11InputStreamE @1023
    _ZN2sf5Music6onLoopEv @1024
    _ZN2sf5Music6onSeekENS_4TimeE @1025
    _ZN2sf5Music9onGetDataERNS_11SoundStream5ChunkE @1026
    _ZN2sf5MusicC1Ev @1027
    _ZN2sf5MusicC2Ev @1028
    _ZN2sf5MusicD0Ev @1029
    _ZN2sf5MusicD1Ev @1030
    _ZN2sf5MusicD2Ev @1031
    _ZN2sf5Mutex4lockEv @1032
    _ZN2sf5Mutex6unlockEv @1033
    _ZN2sf5MutexC1Ev @1034
    _ZN2sf5MutexC2Ev @1035
    _ZN2sf5MutexD1Ev @1036
    _ZN2sf5MutexD2Ev @1037
    _ZN2sf5sleepENS_4TimeE @1038
    _ZN2sf6Thread3runEv @1039
    _ZN2sf6Thread4waitEv @1040
    _ZN2sf6Thread6launchEv @1041
    _ZN2sf6Thread9terminateEv @1042
    _ZN2sf6ThreadD1Ev @1043
    _ZN2sf6ThreadD2Ev @1044
    _ZN2sf7secondsEf @1045
    _ZN2sfdVERNS_4TimeEf @1046
    _ZN2sfdVERNS_4TimeEx @1047
    _ZN2sfdvENS_4TimeES0_ @1048
    _ZN2sfdvENS_4TimeEf @1049
    _ZN2sfdvENS_4TimeEx @1050
    _ZN2sfeqENS_4TimeES0_ @1051
    _ZN2sfgeENS_4TimeES0_ @1052
    _ZN2sfgtENS_4TimeES0_ @1053
    _ZN2sfleENS_4TimeES0_ @1054
    _ZN2sfltENS_4TimeES0_ @1055
    _ZN2sfmIERNS_4TimeES0_ @1056
    _ZN2sfmLERNS_4TimeEf @1057
    _ZN2sfmLERNS_4TimeEx @1058
    _ZN2sfmiENS_4TimeES0_ @1059
    _ZN2sfmlENS_4TimeEf @1060
    _ZN2sfmlENS_4TimeEx @1061
    _ZN2sfmlEfNS_4TimeE @1062
    _ZN2sfmlExNS_4TimeE @1063
    _ZN2sfneENS_4TimeES0_ @1064
    _ZN2sfngENS_4TimeE @1065
    _ZN2sfpLERNS_4TimeES0_ @1066
    _ZN2sfplENS_4TimeES0_ @1067
    _ZN2sfrMERNS_4TimeES0_ @1068
    _ZN2sfrmENS_4TimeES0_ @1069
    _ZN3glm10orthoRH_NOIfEENS_3matILi4ELi4ET_LNS_9qualifierE0EEES2_S2_S2_S2_S2_S2_ @1070
    _ZN3glm11inversesqrtIfEET_S1_ @1071
    _ZN3glm11perspectiveIfEENS_3matILi4ELi4ET_LNS_9qualifierE0EEES2_S2_S2_S2_ @1072
    _ZN3glm16perspectiveRH_NOIfEENS_3matILi4ELi4ET_LNS_9qualifierE0EEES2_S2_S2_S2_ @1073
    _ZN3glm3absIfEET_S1_ @1074
    _ZN3glm3dotILi3EfLNS_9qualifierE0EEET0_RKNS_3vecIXT_ES2_XT1_EEES6_ @1075
    _ZN3glm3matILi3ELi3EfLNS_9qualifierE0EE6lengthEv @1076
    _ZN3glm3matILi3ELi3EfLNS_9qualifierE0EEixEi @1077
    _ZN3glm3matILi4ELi4EfLNS_9qualifierE0EE6lengthEv @1078
    _ZN3glm3matILi4ELi4EfLNS_9qualifierE0EEC1Ef @1079
    _ZN3glm3matILi4ELi4EfLNS_9qualifierE0EEixEi @1080
    _ZN3glm3vecILi2EfLNS_9qualifierE0EEC1Eff @1081
    _ZN3glm3vecILi2EfLNS_9qualifierE0EEC1IiiEET_T0_ @1082
    _ZN3glm3vecILi3EfLNS_9qualifierE0EE6lengthEv @1083
    _ZN3glm3vecILi3EfLNS_9qualifierE0EEC1Efff @1084
    _ZN3glm3vecILi3EfLNS_9qualifierE0EEC1IdddEET_T0_T1_ @1085
    _ZN3glm3vecILi3EfLNS_9qualifierE0EEC1IfLS1_0EEERKNS0_ILi4ET_XT0_EEE @1086
    _ZN3glm3vecILi3EfLNS_9qualifierE0EEC1IiiiEET_T0_T1_ @1087
    _ZN3glm3vecILi3EfLNS_9qualifierE0EEixEi @1088
    _ZN3glm3vecILi3EfLNS_9qualifierE0EEpLIfEERS2_RKNS0_ILi3ET_LS1_0EEE @1089
    _ZN3glm3vecILi4EfLNS_9qualifierE0EE6lengthEv @1090
    _ZN3glm3vecILi4EfLNS_9qualifierE0EEC1Ef @1091
    _ZN3glm3vecILi4EfLNS_9qualifierE0EEC1Effff @1092
    _ZN3glm3vecILi4EfLNS_9qualifierE0EEC1IfiiiEET_T0_T1_T2_ @1093
    _ZN3glm3vecILi4EfLNS_9qualifierE0EEC1IifiiEET_T0_T1_T2_ @1094
    _ZN3glm3vecILi4EfLNS_9qualifierE0EEC1IiifiEET_T0_T1_T2_ @1095
    _ZN3glm3vecILi4EfLNS_9qualifierE0EEC1IiiifEET_T0_T1_T2_ @1096
    _ZN3glm3vecILi4EfLNS_9qualifierE0EEC1IiiiiEET_T0_T1_T2_ @1097
    _ZN3glm3vecILi4EfLNS_9qualifierE0EEixEi @1098
    _ZN3glm3vecILi4EfLNS_9qualifierE0EEmLIfEERS2_RKNS0_ILi4ET_LS1_0EEE @1099
    _ZN3glm3vecILi4EfLNS_9qualifierE0EEmLIfEERS2_T_ @1100
    _ZN3glm3vecILi4EfLNS_9qualifierE0EEpLIfEERS2_RKNS0_ILi4ET_LS1_0EEE @1101
    _ZN3glm5orthoIfEENS_3matILi4ELi4ET_LNS_9qualifierE0EEES2_S2_S2_S2_S2_S2_ @1102
    _ZN3glm5scaleIfLNS_9qualifierE0EEENS_3matILi4ELi4ET_XT0_EEERKS4_RKNS_3vecILi3ES3_XT0_EEE @1103
    _ZN3glm6detail11compute_absIfLb1EE4callEf @1104
    _ZN3glm6detail11compute_dotINS_3vecILi3EfLNS_9qualifierE0EEEfLb0EE4callERKS4_S7_ @1105
    _ZN3glm6detail14compute_lengthILi3EfLNS_9qualifierE0ELb0EE4callERKNS_3vecILi3EfLS2_0EEE @1106
    _ZN3glm6detail16compute_vec4_addIfLNS_9qualifierE0ELb0EE4callERKNS_3vecILi4EfLS2_0EEES7_ @1107
    _ZN3glm6detail16compute_vec4_mulIfLNS_9qualifierE0ELb0EE4callERKNS_3vecILi4EfLS2_0EEES7_ @1108
    _ZN3glm6detail17compute_normalizeILi3EfLNS_9qualifierE0ELb0EE4callERKNS_3vecILi3EfLS2_0EEE @1109
    _ZN3glm6detail17compute_transposeILi4ELi4EfLNS_9qualifierE0ELb0EE4callERKNS_3matILi4ELi4EfLS2_0EEE @1110
    _ZN3glm6detail22compute_transpose_typeILi4ELi4EfLNS_9qualifierE0ELb1ELb0EE4callERKNS_3matILi4ELi4EfLS2_0EEE @1111
    _ZN3glm6lengthILi3EfLNS_9qualifierE0EEET0_RKNS_3vecIXT_ES2_XT1_EEE @1112
    _ZN3glm6rotateIfLNS_9qualifierE0EEENS_3matILi4ELi4ET_XT0_EEERKS4_S3_RKNS_3vecILi3ES3_XT0_EEE @1113
    _ZN3glm9normalizeILi3EfLNS_9qualifierE0EEENS_3vecIXT_ET0_XT1_EEERKS4_ @1114
    _ZN3glm9translateIfLNS_9qualifierE0EEENS_3matILi4ELi4ET_XT0_EEERKS4_RKNS_3vecILi3ES3_XT0_EEE @1115
    _ZN3glm9transposeILi4ELi4EfLNS_9qualifierE0EEENS_3matIXT_EXT0_ET1_XT2_EE14transpose_typeERKS4_ @1116
    _ZN3glm9value_ptrIfLNS_9qualifierE0EEEPT_RNS_3matILi3ELi3ES2_XT0_EEE @1117
    _ZN3glm9value_ptrIfLNS_9qualifierE0EEEPT_RNS_3matILi4ELi4ES2_XT0_EEE @1118
    _ZN3glm9value_ptrIfLNS_9qualifierE0EEEPT_RNS_3vecILi2ES2_XT0_EEE @1119
    _ZN3glm9value_ptrIfLNS_9qualifierE0EEEPT_RNS_3vecILi3ES2_XT0_EEE @1120
    _ZN3glm9value_ptrIfLNS_9qualifierE0EEEPT_RNS_3vecILi4ES2_XT0_EEE @1121
    _ZN3glmmlIfLNS_9qualifierE0EEENS_3matILi4ELi4ET_XT0_EE8col_typeERKS4_RKNS4_8row_typeE @1122
    _ZN3glmmlIfLNS_9qualifierE0EEENS_3matILi4ELi4ET_XT0_EEERKS4_S6_ @1123
    _ZN3glmmlIfLNS_9qualifierE0EEENS_3vecILi3ET_XT0_EEERKS4_S3_ @1124
    _ZN3glmmlIfLNS_9qualifierE0EEENS_3vecILi3ET_XT0_EEERKS4_S6_ @1125
    _ZN3glmmlIfLNS_9qualifierE0EEENS_3vecILi3ET_XT0_EEES3_RKS4_ @1126
    _ZN3glmmlIfLNS_9qualifierE0EEENS_3vecILi4ET_XT0_EEERKS4_S3_ @1127
    _ZN3glmmlIfLNS_9qualifierE0EEENS_3vecILi4ET_XT0_EEERKS4_S6_ @1128
    _ZN3glmplIfLNS_9qualifierE0EEENS_3vecILi4ET_XT0_EEERKS4_S6_ @1129
    _ZN4alib13MultiEnStringD1Ev @1130
    _ZN9__gnu_cxx11char_traitsIcE2eqERKcS3_ @1131
    _ZN9__gnu_cxx11char_traitsIcE6lengthEPKc @1132
    _ZN9__gnu_cxx11char_traitsIwE2eqERKwS3_ @1133
    _ZN9__gnu_cxx11char_traitsIwE6lengthEPKw @1134
    _ZN9__gnu_cxx16__aligned_bufferINSt7__cxx1112basic_stringIcSt11char_traitsIcESaIcEEEE6_M_ptrEv @1135
    _ZN9__gnu_cxx16__aligned_bufferINSt7__cxx1112basic_stringIcSt11char_traitsIcESaIcEEEE7_M_addrEv @1136
    _ZN9__gnu_cxx16__aligned_bufferISt4pairIKN2me12CharPropertyENS2_8CharDataEEE6_M_ptrEv @1137
    _ZN9__gnu_cxx16__aligned_bufferISt4pairIKN2me12CharPropertyENS2_8CharDataEEE7_M_addrEv @1138
    _ZN9__gnu_cxx17__normal_iteratorIP11MusicStructSt6vectorIS1_SaIS1_EEEC1ERKS2_ @1139
    _ZN9__gnu_cxx17__normal_iteratorIP11MusicStructSt6vectorIS1_SaIS1_EEEppEv @1140
    _ZN9__gnu_cxx17__normal_iteratorIPK11MusicStructSt6vectorIS1_SaIS1_EEEC1ERKS3_ @1141
    _ZN9__gnu_cxx17__normal_iteratorIPK11MusicStructSt6vectorIS1_SaIS1_EEEppEv @1142
    _ZN9__gnu_cxx17__normal_iteratorIPKN2me3VBOESt6vectorIS2_SaIS2_EEEC1ERKS4_ @1143
    _ZN9__gnu_cxx17__normal_iteratorIPKN2me3VBOESt6vectorIS2_SaIS2_EEEC1IPS2_vEERKNS0_IT_S7_EE @1144
    _ZN9__gnu_cxx17__normal_iteratorIPKN2me3VBOESt6vectorIS2_SaIS2_EEEppEv @1145
    _ZN9__gnu_cxx17__normal_iteratorIPKfSt6vectorIfSaIfEEEC1ERKS2_ @1146
    _ZN9__gnu_cxx17__normal_iteratorIPKjSt6vectorIjSaIjEEEC1ERKS2_ @1147
    _ZN9__gnu_cxx17__normal_iteratorIPKjSt6vectorIjSaIjEEEC1IPjvEERKNS0_IT_S5_EE @1148
    _ZN9__gnu_cxx17__normal_iteratorIPN2me3VBOESt6vectorIS2_SaIS2_EEEC1ERKS3_ @1149
    _ZN9__gnu_cxx17__normal_iteratorIPN2me3VBOESt6vectorIS2_SaIS2_EEEppEv @1150
    _ZN9__gnu_cxx17__normal_iteratorIPN3glm3vecILi2EfLNS1_9qualifierE0EEESt6vectorIS4_SaIS4_EEEC1ERKS5_ @1151
    _ZN9__gnu_cxx17__normal_iteratorIPN3glm3vecILi3EfLNS1_9qualifierE0EEESt6vectorIS4_SaIS4_EEEC1ERKS5_ @1152
    _ZN9__gnu_cxx17__normal_iteratorIPPN2me7GObjectESt6vectorIS3_SaIS3_EEEC1ERKS4_ @1153
    _ZN9__gnu_cxx17__normal_iteratorIPPN2me7GObjectESt6vectorIS3_SaIS3_EEEppEv @1154
    _ZN9__gnu_cxx17__normal_iteratorIPfSt6vectorIfSaIfEEEC1ERKS1_ @1155
    _ZN9__gnu_cxx17__normal_iteratorIPjSt6vectorIjSaIjEEEC1ERKS1_ @1156
    _ZN9__gnu_cxxmiIP11MusicStructSt6vectorIS1_SaIS1_EEEENS_17__normal_iteratorIT_T0_E15difference_typeERKS9_SC_ @1157
    _ZN9__gnu_cxxmiIPKN2me3VBOESt6vectorIS2_SaIS2_EEEENS_17__normal_iteratorIT_T0_E15difference_typeERKSB_SE_ @1158
    _ZN9__gnu_cxxmiIPKjSt6vectorIjSaIjEEEENS_17__normal_iteratorIT_T0_E15difference_typeERKS9_SC_ @1159
    _ZN9__gnu_cxxmiIPN2me3VBOESt6vectorIS2_SaIS2_EEEENS_17__normal_iteratorIT_T0_E15difference_typeERKSA_SD_ @1160
    _ZN9__gnu_cxxmiIPN3glm3vecILi2EfLNS1_9qualifierE0EEESt6vectorIS4_SaIS4_EEEENS_17__normal_iteratorIT_T0_E15difference_typeERKSC_SF_ @1161
    _ZN9__gnu_cxxmiIPN3glm3vecILi3EfLNS1_9qualifierE0EEESt6vectorIS4_SaIS4_EEEENS_17__normal_iteratorIT_T0_E15difference_typeERKSC_SF_ @1162
    _ZN9__gnu_cxxmiIPPN2me7GObjectESt6vectorIS3_SaIS3_EEEENS_17__normal_iteratorIT_T0_E15difference_typeERKSB_SE_ @1163
    _ZN9__gnu_cxxmiIPfSt6vectorIfSaIfEEEENS_17__normal_iteratorIT_T0_E15difference_typeERKS8_SB_ @1164
    _ZN9__gnu_cxxmiIPjSt6vectorIjSaIjEEEENS_17__normal_iteratorIT_T0_E15difference_typeERKS8_SB_ @1165
    _ZN9__gnu_cxxneIP11MusicStructSt6vectorIS1_SaIS1_EEEEbRKNS_17__normal_iteratorIT_T0_EESB_ @1166
    _ZN9__gnu_cxxneIPK11MusicStructSt6vectorIS1_SaIS1_EEEEbRKNS_17__normal_iteratorIT_T0_EESC_ @1167
    _ZN9__gnu_cxxneIPKN2me3VBOESt6vectorIS2_SaIS2_EEEEbRKNS_17__normal_iteratorIT_T0_EESD_ @1168
    _ZN9__gnu_cxxneIPN2me3VBOESt6vectorIS2_SaIS2_EEEEbRKNS_17__normal_iteratorIT_T0_EESC_ @1169
    _ZN9__gnu_cxxneIPPN2me7GObjectESt6vectorIS3_SaIS3_EEEEbRKNS_17__normal_iteratorIT_T0_EESD_ @1170
    _ZN9__gnu_cxxneIPjSt6vectorIjSaIjEEEEbRKNS_17__normal_iteratorIT_T0_EESA_ @1171
    _ZNK2sf11SoundSource11getPositionEv @1172
    _ZNK2sf11SoundSource14getAttenuationEv @1173
    _ZNK2sf11SoundSource14getMinDistanceEv @1174
    _ZNK2sf11SoundSource20isRelativeToListenerEv @1175
    _ZNK2sf11SoundSource8getPitchEv @1176
    _ZNK2sf11SoundSource9getStatusEv @1177
    _ZNK2sf11SoundSource9getVolumeEv @1178
    _ZNK2sf11SoundStream13getSampleRateEv @1179
    _ZNK2sf11SoundStream15getChannelCountEv @1180
    _ZNK2sf11SoundStream16getPlayingOffsetEv @1181
    _ZNK2sf11SoundStream7getLoopEv @1182
    _ZNK2sf11SoundStream9getStatusEv @1183
    _ZNK2sf14InputSoundFile11getDurationEv @1184
    _ZNK2sf14InputSoundFile13getSampleRateEv @1185
    _ZNK2sf14InputSoundFile13getTimeOffsetEv @1186
    _ZNK2sf14InputSoundFile14getSampleCountEv @1187
    _ZNK2sf14InputSoundFile15getChannelCountEv @1188
    _ZNK2sf14InputSoundFile15getSampleOffsetEv @1189
    _ZNK2sf4Time14asMicrosecondsEv @1190
    _ZNK2sf4Time14asMillisecondsEv @1191
    _ZNK2sf4Time9asSecondsEv @1192
    _ZNK2sf5Music11getDurationEv @1193
    _ZNK2sf5Music13getLoopPointsEv @1194
    _ZNK2sf5Music13samplesToTimeEy @1195
    _ZNK2sf5Music13timeToSamplesENS_4TimeE @1196
    _ZNK3glm3matILi4ELi4EfLNS_9qualifierE0EEixEi @1197
    _ZNK3glm3vecILi3EfLNS_9qualifierE0EEixEi @1198
    _ZNK3glm3vecILi4EfLNS_9qualifierE0EEixEi @1199
    _ZNK9__gnu_cxx16__aligned_bufferINSt7__cxx1112basic_stringIcSt11char_traitsIcESaIcEEEE6_M_ptrEv @1200
    _ZNK9__gnu_cxx16__aligned_bufferINSt7__cxx1112basic_stringIcSt11char_traitsIcESaIcEEEE7_M_addrEv @1201
    _ZNK9__gnu_cxx17__normal_iteratorIP11MusicStructSt6vectorIS1_SaIS1_EEE4baseEv @1202
    _ZNK9__gnu_cxx17__normal_iteratorIP11MusicStructSt6vectorIS1_SaIS1_EEEdeEv @1203
    _ZNK9__gnu_cxx17__normal_iteratorIP11MusicStructSt6vectorIS1_SaIS1_EEEmiEx @1204
    _ZNK9__gnu_cxx17__normal_iteratorIP11MusicStructSt6vectorIS1_SaIS1_EEEplEx @1205
    _ZNK9__gnu_cxx17__normal_iteratorIPK11MusicStructSt6vectorIS1_SaIS1_EEE4baseEv @1206
    _ZNK9__gnu_cxx17__normal_iteratorIPK11MusicStructSt6vectorIS1_SaIS1_EEEdeEv @1207
    _ZNK9__gnu_cxx17__normal_iteratorIPKN2me3VBOESt6vectorIS2_SaIS2_EEE4baseEv @1208
    _ZNK9__gnu_cxx17__normal_iteratorIPKN2me3VBOESt6vectorIS2_SaIS2_EEEdeEv @1209
    _ZNK9__gnu_cxx17__normal_iteratorIPKfSt6vectorIfSaIfEEE4baseEv @1210
    _ZNK9__gnu_cxx17__normal_iteratorIPKjSt6vectorIjSaIjEEE4baseEv @1211
    _ZNK9__gnu_cxx17__normal_iteratorIPN2me3VBOESt6vectorIS2_SaIS2_EEE4baseEv @1212
    _ZNK9__gnu_cxx17__normal_iteratorIPN2me3VBOESt6vectorIS2_SaIS2_EEEdeEv @1213
    _ZNK9__gnu_cxx17__normal_iteratorIPN2me3VBOESt6vectorIS2_SaIS2_EEEmiEx @1214
    _ZNK9__gnu_cxx17__normal_iteratorIPN2me3VBOESt6vectorIS2_SaIS2_EEEplEx @1215
    _ZNK9__gnu_cxx17__normal_iteratorIPN3glm3vecILi2EfLNS1_9qualifierE0EEESt6vectorIS4_SaIS4_EEE4baseEv @1216
    _ZNK9__gnu_cxx17__normal_iteratorIPN3glm3vecILi2EfLNS1_9qualifierE0EEESt6vectorIS4_SaIS4_EEEdeEv @1217
    _ZNK9__gnu_cxx17__normal_iteratorIPN3glm3vecILi2EfLNS1_9qualifierE0EEESt6vectorIS4_SaIS4_EEEmiEx @1218
    _ZNK9__gnu_cxx17__normal_iteratorIPN3glm3vecILi3EfLNS1_9qualifierE0EEESt6vectorIS4_SaIS4_EEE4baseEv @1219
    _ZNK9__gnu_cxx17__normal_iteratorIPPN2me7GObjectESt6vectorIS3_SaIS3_EEE4baseEv @1220
    _ZNK9__gnu_cxx17__normal_iteratorIPPN2me7GObjectESt6vectorIS3_SaIS3_EEEdeEv @1221
    _ZNK9__gnu_cxx17__normal_iteratorIPfSt6vectorIfSaIfEEE4baseEv @1222
    _ZNK9__gnu_cxx17__normal_iteratorIPfSt6vectorIfSaIfEEEplEx @1223
    _ZNK9__gnu_cxx17__normal_iteratorIPjSt6vectorIjSaIjEEE4baseEv @1224
    _ZNK9__gnu_cxx17__normal_iteratorIPjSt6vectorIjSaIjEEEplEx @1225
    _ZNKSt10_HashtableIN2me12CharPropertyESt4pairIKS1_NS0_8CharDataEESaIS5_ENSt8__detail10_Select1stESt8equal_toIS1_ESt4hashIS1_ENS7_18_Mod_range_hashingENS7_20_Default_ranged_hashENS7_20_Prime_rehash_policyENS7_17_Hashtable_traitsILb1ELb0ELb1EEEE21_M_uses_single_bucketEPPNS7_15_Hash_node_baseE @1226
    _ZNKSt10_HashtableIN2me12CharPropertyESt4pairIKS1_NS0_8CharDataEESaIS5_ENSt8__detail10_Select1stESt8equal_toIS1_ESt4hashIS1_ENS7_18_Mod_range_hashingENS7_20_Default_ranged_hashENS7_20_Prime_rehash_policyENS7_17_Hashtable_traitsILb1ELb0ELb1EEEE8_M_beginEv @1227
    _ZNKSt10_HashtableINSt7__cxx1112basic_stringIcSt11char_traitsIcESaIcEEES5_SaIS5_ENSt8__detail9_IdentityESt8equal_toIS5_ESt4hashIS5_ENS7_18_Mod_range_hashingENS7_20_Default_ranged_hashENS7_20_Prime_rehash_policyENS7_17_Hashtable_traitsILb1ELb1ELb1EEEE12_M_find_nodeEyRKS5_y @1228
    _ZNKSt10_HashtableINSt7__cxx1112basic_stringIcSt11char_traitsIcESaIcEEES5_SaIS5_ENSt8__detail9_IdentityESt8equal_toIS5_ESt4hashIS5_ENS7_18_Mod_range_hashingENS7_20_Default_ranged_hashENS7_20_Prime_rehash_policyENS7_17_Hashtable_traitsILb1ELb1ELb1EEEE15_M_bucket_indexERKNS7_16_Hash_node_valueIS5_Lb1EEE @1229
    _ZNKSt10_HashtableINSt7__cxx1112basic_stringIcSt11char_traitsIcESaIcEEES5_SaIS5_ENSt8__detail9_IdentityESt8equal_toIS5_ESt4hashIS5_ENS7_18_Mod_range_hashingENS7_20_Default_ranged_hashENS7_20_Prime_rehash_policyENS7_17_Hashtable_traitsILb1ELb1ELb1EEEE15_M_bucket_indexEy @1230
    _ZNKSt10_HashtableINSt7__cxx1112basic_stringIcSt11char_traitsIcESaIcEEES5_SaIS5_ENSt8__detail9_IdentityESt8equal_toIS5_ESt4hashIS5_ENS7_18_Mod_range_hashingENS7_20_Default_ranged_hashENS7_20_Prime_rehash_policyENS7_17_Hashtable_traitsILb1ELb1ELb1EEEE15_M_find_node_trIS5_EEPNS7_10_Hash_nodeIS5_Lb1EEEyRKT_y @1231
    _ZNKSt10_HashtableINSt7__cxx1112basic_stringIcSt11char_traitsIcESaIcEEES5_SaIS5_ENSt8__detail9_IdentityESt8equal_toIS5_ESt4hashIS5_ENS7_18_Mod_range_hashingENS7_20_Default_ranged_hashENS7_20_Prime_rehash_policyENS7_17_Hashtable_traitsILb1ELb1ELb1EEEE19_M_find_before_nodeEyRKS5_y @1232
    _ZNKSt10_HashtableINSt7__cxx1112basic_stringIcSt11char_traitsIcESaIcEEES5_SaIS5_ENSt8__detail9_IdentityESt8equal_toIS5_ESt4hashIS5_ENS7_18_Mod_range_hashingENS7_20_Default_ranged_hashENS7_20_Prime_rehash_policyENS7_17_Hashtable_traitsILb1ELb1ELb1EEEE21_M_uses_single_bucketEPPNS7_15_Hash_node_baseE @1233
    _ZNKSt10_HashtableINSt7__cxx1112basic_stringIcSt11char_traitsIcESaIcEEES5_SaIS5_ENSt8__detail9_IdentityESt8equal_toIS5_ESt4hashIS5_ENS7_18_Mod_range_hashingENS7_20_Default_ranged_hashENS7_20_Prime_rehash_policyENS7_17_Hashtable_traitsILb1ELb1ELb1EEEE22_M_find_before_node_trIS5_EEPNS7_15_Hash_node_baseEyRKT_y @1234
    _ZNKSt10_HashtableINSt7__cxx1112basic_stringIcSt11char_traitsIcESaIcEEES5_SaIS5_ENSt8__detail9_IdentityESt8equal_toIS5_ESt4hashIS5_ENS7_18_Mod_range_hashingENS7_20_Default_ranged_hashENS7_20_Prime_rehash_policyENS7_17_Hashtable_traitsILb1ELb1ELb1EEEE4sizeEv @1235
    _ZNKSt10_HashtableINSt7__cxx1112basic_stringIcSt11char_traitsIcESaIcEEES5_SaIS5_ENSt8__detail9_IdentityESt8equal_toIS5_ESt4hashIS5_ENS7_18_Mod_range_hashingENS7_20_Default_ranged_hashENS7_20_Prime_rehash_policyENS7_17_Hashtable_traitsILb1ELb1ELb1EEEE8_M_beginEv @1236
    _ZNKSt10unique_ptrIN2me9ObjLoaderESt14default_deleteIS1_EE3getEv @1237
    _ZNKSt10unique_ptrIN2me9ObjLoaderESt14default_deleteIS1_EEptEv @1238
    _ZNKSt12_Vector_baseI11MusicStructSaIS0_EE19_M_get_Tp_allocatorEv @1239
    _ZNKSt12_Vector_baseIN2me3VBOESaIS1_EE19_M_get_Tp_allocatorEv @1240
    _ZNKSt12_Vector_baseIN3glm3vecILi2EfLNS0_9qualifierE0EEESaIS3_EE19_M_get_Tp_allocatorEv @1241
    _ZNKSt12_Vector_baseIN3glm3vecILi3EfLNS0_9qualifierE0EEESaIS3_EE19_M_get_Tp_allocatorEv @1242
    _ZNKSt12_Vector_baseIPN2me7GObjectESaIS2_EE19_M_get_Tp_allocatorEv @1243
    _ZNKSt12_Vector_baseIfSaIfEE19_M_get_Tp_allocatorEv @1244
    _ZNKSt12_Vector_baseIjSaIjEE19_M_get_Tp_allocatorEv @1245
    _ZNKSt14default_deleteIN2me9ObjLoaderEEclEPS1_ @1246
    _ZNKSt14default_deleteINSt6thread6_StateEEclEPS1_ @1247
    _ZNKSt15__str_hash_baseIcSaIcENSt7__cxx1112basic_stringIcSt11char_traitsIcES0_EEEclERKS5_ @1248
    _ZNKSt15__uniq_ptr_implIN2me9ObjLoaderESt14default_deleteIS1_EE6_M_ptrEv @1249
    _ZNKSt4fposIiEcvxEv @1250
    _ZNKSt4hashIN2me12CharPropertyEEclERKS1_ @1251
    _ZNKSt4hashIjEclEj @1252
    _ZNKSt4hashImEclEm @1253
    _ZNKSt5ctypeIcE8do_widenEc @1254
    _ZNKSt6chrono8durationIfSt5ratioILx1ELx1000EEE5countEv @1255
    _ZNKSt6chrono8durationIxSt5ratioILx1ELx1000EEE5countEv @1256
    _ZNKSt6chrono8durationIxSt5ratioILx1ELx1EEE5countEv @1257
    _ZNKSt6thread8joinableEv @1258
    _ZNKSt6vectorI11MusicStructSaIS0_EE12_M_check_lenEyPKc @1259
    _ZNKSt6vectorI11MusicStructSaIS0_EE3endEv @1260
    _ZNKSt6vectorI11MusicStructSaIS0_EE4sizeEv @1261
    _ZNKSt6vectorI11MusicStructSaIS0_EE5beginEv @1262
    _ZNKSt6vectorI11MusicStructSaIS0_EE8capacityEv @1263
    _ZNKSt6vectorI11MusicStructSaIS0_EE8max_sizeEv @1264
    _ZNKSt6vectorIN2me3VBOESaIS1_EE12_M_check_lenEyPKc @1265
    _ZNKSt6vectorIN2me3VBOESaIS1_EE3endEv @1266
    _ZNKSt6vectorIN2me3VBOESaIS1_EE4sizeEv @1267
    _ZNKSt6vectorIN2me3VBOESaIS1_EE5beginEv @1268
    _ZNKSt6vectorIN2me3VBOESaIS1_EE6cbeginEv @1269
    _ZNKSt6vectorIN2me3VBOESaIS1_EE8max_sizeEv @1270
    _ZNKSt6vectorIN3glm3vecILi2EfLNS0_9qualifierE0EEESaIS3_EE12_M_check_lenEyPKc @1271
    _ZNKSt6vectorIN3glm3vecILi2EfLNS0_9qualifierE0EEESaIS3_EE4sizeEv @1272
    _ZNKSt6vectorIN3glm3vecILi2EfLNS0_9qualifierE0EEESaIS3_EE8max_sizeEv @1273
    _ZNKSt6vectorIN3glm3vecILi3EfLNS0_9qualifierE0EEESaIS3_EE12_M_check_lenEyPKc @1274
    _ZNKSt6vectorIN3glm3vecILi3EfLNS0_9qualifierE0EEESaIS3_EE4sizeEv @1275
    _ZNKSt6vectorIN3glm3vecILi3EfLNS0_9qualifierE0EEESaIS3_EE8max_sizeEv @1276
    _ZNKSt6vectorIPN2me7GObjectESaIS2_EE12_M_check_lenEyPKc @1277
    _ZNKSt6vectorIPN2me7GObjectESaIS2_EE4sizeEv @1278
    _ZNKSt6vectorIPN2me7GObjectESaIS2_EE8max_sizeEv @1279
    _ZNKSt6vectorIfSaIfEE12_M_check_lenEyPKc @1280
    _ZNKSt6vectorIfSaIfEE3endEv @1281
    _ZNKSt6vectorIfSaIfEE4sizeEv @1282
    _ZNKSt6vectorIfSaIfEE5beginEv @1283
    _ZNKSt6vectorIfSaIfEE8capacityEv @1284
    _ZNKSt6vectorIfSaIfEE8max_sizeEv @1285
    _ZNKSt6vectorIiSaIiEE4sizeEv @1286
    _ZNKSt6vectorIjSaIjEE12_M_check_lenEyPKc @1287
    _ZNKSt6vectorIjSaIjEE4sizeEv @1288
    _ZNKSt6vectorIjSaIjEE6cbeginEv @1289
    _ZNKSt6vectorIjSaIjEE8max_sizeEv @1290
    _ZNKSt8__detail10_AllocNodeISaINS_10_Hash_nodeINSt7__cxx1112basic_stringIcSt11char_traitsIcESaIcEEELb1EEEEEclIJRKS7_EEEPS8_DpOT_ @1291
    _ZNKSt8__detail10_Hash_nodeINSt7__cxx1112basic_stringIcSt11char_traitsIcESaIcEEELb1EE7_M_nextEv @1292
    _ZNKSt8__detail10_Hash_nodeISt4pairIKN2me12CharPropertyENS2_8CharDataEELb1EE7_M_nextEv @1293
    _ZNKSt8__detail15_Hash_code_baseINSt7__cxx1112basic_stringIcSt11char_traitsIcESaIcEEES6_NS_9_IdentityESt4hashIS6_ENS_18_Mod_range_hashingENS_20_Default_ranged_hashELb1EE12_M_hash_codeERKS6_ @1294
    _ZNKSt8__detail15_Hash_code_baseINSt7__cxx1112basic_stringIcSt11char_traitsIcESaIcEEES6_NS_9_IdentityESt4hashIS6_ENS_18_Mod_range_hashingENS_20_Default_ranged_hashELb1EE13_M_store_codeERNS_21_Hash_node_code_cacheILb1EEEy @1295
    _ZNKSt8__detail15_Hash_code_baseINSt7__cxx1112basic_stringIcSt11char_traitsIcESaIcEEES6_NS_9_IdentityESt4hashIS6_ENS_18_Mod_range_hashingENS_20_Default_ranged_hashELb1EE15_M_bucket_indexERKNS_16_Hash_node_valueIS6_Lb1EEEy @1296
    _ZNKSt8__detail15_Hash_code_baseINSt7__cxx1112basic_stringIcSt11char_traitsIcESaIcEEES6_NS_9_IdentityESt4hashIS6_ENS_18_Mod_range_hashingENS_20_Default_ranged_hashELb1EE15_M_bucket_indexEyy @1297
    _ZNKSt8__detail15_Hash_code_baseINSt7__cxx1112basic_stringIcSt11char_traitsIcESaIcEEES6_NS_9_IdentityESt4hashIS6_ENS_18_Mod_range_hashingENS_20_Default_ranged_hashELb1EE15_M_hash_code_trIS6_EEyRKT_ @1298
    _ZNKSt8__detail15_Hash_code_baseINSt7__cxx1112basic_stringIcSt11char_traitsIcESaIcEEES6_NS_9_IdentityESt4hashIS6_ENS_18_Mod_range_hashingENS_20_Default_ranged_hashELb1EE7_M_hashEv @1299
    _ZNKSt8__detail15_Hashtable_baseINSt7__cxx1112basic_stringIcSt11char_traitsIcESaIcEEES6_NS_9_IdentityESt8equal_toIS6_ESt4hashIS6_ENS_18_Mod_range_hashingENS_20_Default_ranged_hashENS_17_Hashtable_traitsILb1ELb1ELb1EEEE12_M_equals_trIS6_EEbRKT_yRKNS_16_Hash_node_valueIS6_Lb1EEE @1300
    _ZNKSt8__detail15_Hashtable_baseINSt7__cxx1112basic_stringIcSt11char_traitsIcESaIcEEES6_NS_9_IdentityESt8equal_toIS6_ESt4hashIS6_ENS_18_Mod_range_hashingENS_20_Default_ranged_hashENS_17_Hashtable_traitsILb1ELb1ELb1EEEE13_M_key_equalsERKS6_RKNS_16_Hash_node_valueIS6_Lb1EEE @1301
    _ZNKSt8__detail15_Hashtable_baseINSt7__cxx1112basic_stringIcSt11char_traitsIcESaIcEEES6_NS_9_IdentityESt8equal_toIS6_ESt4hashIS6_ENS_18_Mod_range_hashingENS_20_Default_ranged_hashENS_17_Hashtable_traitsILb1ELb1ELb1EEEE16_M_key_equals_trIS6_EEbRKT_RKNS_16_Hash_node_valueIS6_Lb1EEE @1302
    _ZNKSt8__detail15_Hashtable_baseINSt7__cxx1112basic_stringIcSt11char_traitsIcESaIcEEES6_NS_9_IdentityESt8equal_toIS6_ESt4hashIS6_ENS_18_Mod_range_hashingENS_20_Default_ranged_hashENS_17_Hashtable_traitsILb1ELb1ELb1EEEE5_M_eqEv @1303
    _ZNKSt8__detail15_Hashtable_baseINSt7__cxx1112basic_stringIcSt11char_traitsIcESaIcEEES6_NS_9_IdentityESt8equal_toIS6_ESt4hashIS6_ENS_18_Mod_range_hashingENS_20_Default_ranged_hashENS_17_Hashtable_traitsILb1ELb1ELb1EEEE9_M_equalsERKS6_yRKNS_16_Hash_node_valueIS6_Lb1EEE @1304
    _ZNKSt8__detail18_Mod_range_hashingclEyy @1305
    _ZNKSt8__detail19_ConvertToValueTypeINS_9_IdentityENSt7__cxx1112basic_stringIcSt11char_traitsIcESaIcEEEEclIRKS7_EEOT_SD_ @1306
    _ZNKSt8__detail20_Prime_rehash_policy8_M_stateEv @1307
    _ZNKSt8__detail21_Hashtable_ebo_helperILi0ESt8equal_toINSt7__cxx1112basic_stringIcSt11char_traitsIcESaIcEEEELb1EE7_M_cgetEv @1308
    _ZNKSt8__detail21_Hashtable_ebo_helperILi1ESt4hashINSt7__cxx1112basic_stringIcSt11char_traitsIcESaIcEEEELb1EE7_M_cgetEv @1309
    _ZNKSt8__detail9_IdentityclIRKNSt7__cxx1112basic_stringIcSt11char_traitsIcESaIcEEEEEOT_SB_ @1310
    _ZNKSt8equal_toINSt7__cxx1112basic_stringIcSt11char_traitsIcESaIcEEEEclERKS5_S8_ @1311
    _ZNSt10_Hash_impl4hashEPKvyy @1312
    _ZNSt10_HashtableIN2me12CharPropertyESt4pairIKS1_NS0_8CharDataEESaIS5_ENSt8__detail10_Select1stESt8equal_toIS1_ESt4hashIS1_ENS7_18_Mod_range_hashingENS7_20_Default_ranged_hashENS7_20_Prime_rehash_policyENS7_17_Hashtable_traitsILb1ELb0ELb1EEEE21_M_deallocate_bucketsEPPNS7_15_Hash_node_baseEy @1313
    _ZNSt10_HashtableIN2me12CharPropertyESt4pairIKS1_NS0_8CharDataEESaIS5_ENSt8__detail10_Select1stESt8equal_toIS1_ESt4hashIS1_ENS7_18_Mod_range_hashingENS7_20_Default_ranged_hashENS7_20_Prime_rehash_policyENS7_17_Hashtable_traitsILb1ELb0ELb1EEEE21_M_deallocate_bucketsEv @1314
    _ZNSt10_HashtableIN2me12CharPropertyESt4pairIKS1_NS0_8CharDataEESaIS5_ENSt8__detail10_Select1stESt8equal_toIS1_ESt4hashIS1_ENS7_18_Mod_range_hashingENS7_20_Default_ranged_hashENS7_20_Prime_rehash_policyENS7_17_Hashtable_traitsILb1ELb0ELb1EEEE5clearEv @1315
    _ZNSt10_HashtableIN2me12CharPropertyESt4pairIKS1_NS0_8CharDataEESaIS5_ENSt8__detail10_Select1stESt8equal_toIS1_ESt4hashIS1_ENS7_18_Mod_range_hashingENS7_20_Default_ranged_hashENS7_20_Prime_rehash_policyENS7_17_Hashtable_traitsILb1ELb0ELb1EEEEC1Ev @1316
    _ZNSt10_HashtableIN2me12CharPropertyESt4pairIKS1_NS0_8CharDataEESaIS5_ENSt8__detail10_Select1stESt8equal_toIS1_ESt4hashIS1_ENS7_18_Mod_range_hashingENS7_20_Default_ranged_hashENS7_20_Prime_rehash_policyENS7_17_Hashtable_traitsILb1ELb0ELb1EEEED1Ev @1317
    _ZNSt10_HashtableINSt7__cxx1112basic_stringIcSt11char_traitsIcESaIcEEES5_SaIS5_ENSt8__detail9_IdentityESt8equal_toIS5_ESt4hashIS5_ENS7_18_Mod_range_hashingENS7_20_Default_ranged_hashENS7_20_Prime_rehash_policyENS7_17_Hashtable_traitsILb1ELb1ELb1EEEE12_Scoped_nodeC1EPNS7_10_Hash_nodeIS5_Lb1EEEPNS7_16_Hashtable_allocISaISL_EEE @1318
    _ZNSt10_HashtableINSt7__cxx1112basic_stringIcSt11char_traitsIcESaIcEEES5_SaIS5_ENSt8__detail9_IdentityESt8equal_toIS5_ESt4hashIS5_ENS7_18_Mod_range_hashingENS7_20_Default_ranged_hashENS7_20_Prime_rehash_policyENS7_17_Hashtable_traitsILb1ELb1ELb1EEEE12_Scoped_nodeD1Ev @1319
    _ZNSt10_HashtableINSt7__cxx1112basic_stringIcSt11char_traitsIcESaIcEEES5_SaIS5_ENSt8__detail9_IdentityESt8equal_toIS5_ESt4hashIS5_ENS7_18_Mod_range_hashingENS7_20_Default_ranged_hashENS7_20_Prime_rehash_policyENS7_17_Hashtable_traitsILb1ELb1ELb1EEEE14_S_forward_keyERKS5_ @1320
    _ZNSt10_HashtableINSt7__cxx1112basic_stringIcSt11char_traitsIcESaIcEEES5_SaIS5_ENSt8__detail9_IdentityESt8equal_toIS5_ESt4hashIS5_ENS7_18_Mod_range_hashingENS7_20_Default_ranged_hashENS7_20_Prime_rehash_policyENS7_17_Hashtable_traitsILb1ELb1ELb1EEEE16_M_insert_uniqueIRKS5_SL_NS7_10_AllocNodeISaINS7_10_Hash_nodeIS5_Lb1EEEEEEEESt4pairINS7_14_Node_iteratorIS5_Lb1ELb1EEEbEOT_OT0_RKT1_ @1321
    _ZNSt10_HashtableINSt7__cxx1112basic_stringIcSt11char_traitsIcESaIcEEES5_SaIS5_ENSt8__detail9_IdentityESt8equal_toIS5_ESt4hashIS5_ENS7_18_Mod_range_hashingENS7_20_Default_ranged_hashENS7_20_Prime_rehash_policyENS7_17_Hashtable_traitsILb1ELb1ELb1EEEE19_M_allocate_bucketsEy @1322
    _ZNSt10_HashtableINSt7__cxx1112basic_stringIcSt11char_traitsIcESaIcEEES5_SaIS5_ENSt8__detail9_IdentityESt8equal_toIS5_ESt4hashIS5_ENS7_18_Mod_range_hashingENS7_20_Default_ranged_hashENS7_20_Prime_rehash_policyENS7_17_Hashtable_traitsILb1ELb1ELb1EEEE20_M_insert_unique_auxIRKS5_NS7_10_AllocNodeISaINS7_10_Hash_nodeIS5_Lb1EEEEEEEESt4pairINS7_14_Node_iteratorIS5_Lb1ELb1EEEbEOT_RKT0_ @1323
    _ZNSt10_HashtableINSt7__cxx1112basic_stringIcSt11char_traitsIcESaIcEEES5_SaIS5_ENSt8__detail9_IdentityESt8equal_toIS5_ESt4hashIS5_ENS7_18_Mod_range_hashingENS7_20_Default_ranged_hashENS7_20_Prime_rehash_policyENS7_17_Hashtable_traitsILb1ELb1ELb1EEEE21_M_deallocate_bucketsEPPNS7_15_Hash_node_baseEy @1324
    _ZNSt10_HashtableINSt7__cxx1112basic_stringIcSt11char_traitsIcESaIcEEES5_SaIS5_ENSt8__detail9_IdentityESt8equal_toIS5_ESt4hashIS5_ENS7_18_Mod_range_hashingENS7_20_Default_ranged_hashENS7_20_Prime_rehash_policyENS7_17_Hashtable_traitsILb1ELb1ELb1EEEE21_M_deallocate_bucketsEv @1325
    _ZNSt10_HashtableINSt7__cxx1112basic_stringIcSt11char_traitsIcESaIcEEES5_SaIS5_ENSt8__detail9_IdentityESt8equal_toIS5_ESt4hashIS5_ENS7_18_Mod_range_hashingENS7_20_Default_ranged_hashENS7_20_Prime_rehash_policyENS7_17_Hashtable_traitsILb1ELb1ELb1EEEE21_M_insert_unique_nodeEyyPNS7_10_Hash_nodeIS5_Lb1EEEy @1326
    _ZNSt10_HashtableINSt7__cxx1112basic_stringIcSt11char_traitsIcESaIcEEES5_SaIS5_ENSt8__detail9_IdentityESt8equal_toIS5_ESt4hashIS5_ENS7_18_Mod_range_hashingENS7_20_Default_ranged_hashENS7_20_Prime_rehash_policyENS7_17_Hashtable_traitsILb1ELb1ELb1EEEE22_M_insert_bucket_beginEyPNS7_10_Hash_nodeIS5_Lb1EEE @1327
    _ZNSt10_HashtableINSt7__cxx1112basic_stringIcSt11char_traitsIcESaIcEEES5_SaIS5_ENSt8__detail9_IdentityESt8equal_toIS5_ESt4hashIS5_ENS7_18_Mod_range_hashingENS7_20_Default_ranged_hashENS7_20_Prime_rehash_policyENS7_17_Hashtable_traitsILb1ELb1ELb1EEEE22__small_size_thresholdEv @1328
    _ZNSt10_HashtableINSt7__cxx1112basic_stringIcSt11char_traitsIcESaIcEEES5_SaIS5_ENSt8__detail9_IdentityESt8equal_toIS5_ESt4hashIS5_ENS7_18_Mod_range_hashingENS7_20_Default_ranged_hashENS7_20_Prime_rehash_policyENS7_17_Hashtable_traitsILb1ELb1ELb1EEEE3endEv @1329
    _ZNSt10_HashtableINSt7__cxx1112basic_stringIcSt11char_traitsIcESaIcEEES5_SaIS5_ENSt8__detail9_IdentityESt8equal_toIS5_ESt4hashIS5_ENS7_18_Mod_range_hashingENS7_20_Default_ranged_hashENS7_20_Prime_rehash_policyENS7_17_Hashtable_traitsILb1ELb1ELb1EEEE4findERKS5_ @1330
    _ZNSt10_HashtableINSt7__cxx1112basic_stringIcSt11char_traitsIcESaIcEEES5_SaIS5_ENSt8__detail9_IdentityESt8equal_toIS5_ESt4hashIS5_ENS7_18_Mod_range_hashingENS7_20_Default_ranged_hashENS7_20_Prime_rehash_policyENS7_17_Hashtable_traitsILb1ELb1ELb1EEEE5clearEv @1331
    _ZNSt10_HashtableINSt7__cxx1112basic_stringIcSt11char_traitsIcESaIcEEES5_SaIS5_ENSt8__detail9_IdentityESt8equal_toIS5_ESt4hashIS5_ENS7_18_Mod_range_hashingENS7_20_Default_ranged_hashENS7_20_Prime_rehash_policyENS7_17_Hashtable_traitsILb1ELb1ELb1EEEE9_M_insertIRKS5_NS7_10_AllocNodeISaINS7_10_Hash_nodeIS5_Lb1EEEEEEEESt4pairINS7_14_Node_iteratorIS5_Lb1ELb1EEEbEOT_RKT0_St17integral_constantIbLb1EE @1332
    _ZNSt10_HashtableINSt7__cxx1112basic_stringIcSt11char_traitsIcESaIcEEES5_SaIS5_ENSt8__detail9_IdentityESt8equal_toIS5_ESt4hashIS5_ENS7_18_Mod_range_hashingENS7_20_Default_ranged_hashENS7_20_Prime_rehash_policyENS7_17_Hashtable_traitsILb1ELb1ELb1EEEE9_M_rehashEySt17integral_constantIbLb1EE @1333
    _ZNSt10_HashtableINSt7__cxx1112basic_stringIcSt11char_traitsIcESaIcEEES5_SaIS5_ENSt8__detail9_IdentityESt8equal_toIS5_ESt4hashIS5_ENS7_18_Mod_range_hashingENS7_20_Default_ranged_hashENS7_20_Prime_rehash_policyENS7_17_Hashtable_traitsILb1ELb1ELb1EEEEC1Ev @1334
    _ZNSt10_HashtableINSt7__cxx1112basic_stringIcSt11char_traitsIcESaIcEEES5_SaIS5_ENSt8__detail9_IdentityESt8equal_toIS5_ESt4hashIS5_ENS7_18_Mod_range_hashingENS7_20_Default_ranged_hashENS7_20_Prime_rehash_policyENS7_17_Hashtable_traitsILb1ELb1ELb1EEEED1Ev @1335
    _ZNSt10_Head_baseILy0EPN2me9ObjLoaderELb0EE7_M_headERKS3_ @1336
    _ZNSt10_Head_baseILy0EPN2me9ObjLoaderELb0EE7_M_headERS3_ @1337
    _ZNSt10_Head_baseILy0EPNSt6thread6_StateELb0EE7_M_headERS3_ @1338
    _ZNSt10_Head_baseILy0EPNSt6thread6_StateELb0EEC2Ev @1339
    _ZNSt10_Head_baseILy1EPbLb0EE7_M_headERS1_ @1340
    _ZNSt10_Head_baseILy1EPbLb0EEC2IS0_EEOT_ @1341
    _ZNSt10_Head_baseILy1ESt14default_deleteIN2me9ObjLoaderEELb1EE7_M_headERS4_ @1342
    _ZNSt10_Head_baseILy1ESt14default_deleteINSt6thread6_StateEELb1EE7_M_headERS4_ @1343
    _ZNSt10_Head_baseILy1ESt14default_deleteINSt6thread6_StateEELb1EEC2Ev @1344
    _ZNSt10_Head_baseILy2EPPFvRN2me6WindowEdPNS0_6CameraEELb0EE7_M_headERS8_ @1345
    _ZNSt10_Head_baseILy2EPPFvRN2me6WindowEdPNS0_6CameraEELb0EEC2IS7_EEOT_ @1346
    _ZNSt10_Head_baseILy3EPjLb0EE7_M_headERS1_ @1347
    _ZNSt10_Head_baseILy3EPjLb0EEC2IS0_EEOT_ @1348
    _ZNSt10_Head_baseILy4EPN2me6WindowELb0EE7_M_headERS3_ @1349
    _ZNSt10_Head_baseILy4EPN2me6WindowELb0EEC2IS2_EEOT_ @1350
    _ZNSt10unique_ptrIN2me9ObjLoaderESt14default_deleteIS1_EE11get_deleterEv @1351
    _ZNSt10unique_ptrIN2me9ObjLoaderESt14default_deleteIS1_EE5resetEPS1_ @1352
    _ZNSt10unique_ptrIN2me9ObjLoaderESt14default_deleteIS1_EED1Ev @1353
    _ZNSt10unique_ptrINSt6thread6_StateESt14default_deleteIS1_EE11get_deleterEv @1354
    _ZNSt10unique_ptrINSt6thread6_StateESt14default_deleteIS1_EEC1IS3_vEEPS1_ @1355
    _ZNSt10unique_ptrINSt6thread6_StateESt14default_deleteIS1_EED1Ev @1356
    _ZNSt11_Tuple_implILy0EJPN2me9ObjLoaderESt14default_deleteIS1_EEE7_M_headERKS5_ @1357
    _ZNSt11_Tuple_implILy0EJPN2me9ObjLoaderESt14default_deleteIS1_EEE7_M_headERS5_ @1358
    _ZNSt11_Tuple_implILy0EJPNSt6thread6_StateESt14default_deleteIS1_EEE7_M_headERS5_ @1359
    _ZNSt11_Tuple_implILy0EJPNSt6thread6_StateESt14default_deleteIS1_EEEC2Ev @1360
    _ZNSt11_Tuple_implILy1EJPbPPFvRN2me6WindowEdPNS1_6CameraEEPjPS2_EE7_M_headERSB_ @1361
    _ZNSt11_Tuple_implILy1EJPbPPFvRN2me6WindowEdPNS1_6CameraEEPjPS2_EEC2IS0_JS8_S9_SA_EvEEOT_DpOT0_ @1362
    _ZNSt11_Tuple_implILy1EJSt14default_deleteIN2me9ObjLoaderEEEE7_M_headERS4_ @1363
    _ZNSt11_Tuple_implILy1EJSt14default_deleteINSt6thread6_StateEEEE7_M_headERS4_ @1364
    _ZNSt11_Tuple_implILy1EJSt14default_deleteINSt6thread6_StateEEEEC2Ev @1365
    _ZNSt11_Tuple_implILy2EJPPFvRN2me6WindowEdPNS0_6CameraEEPjPS1_EE7_M_headERSA_ @1366
    _ZNSt11_Tuple_implILy2EJPPFvRN2me6WindowEdPNS0_6CameraEEPjPS1_EEC2IS7_JS8_S9_EvEEOT_DpOT0_ @1367
    _ZNSt11_Tuple_implILy3EJPjPN2me6WindowEEE7_M_headERS4_ @1368
    _ZNSt11_Tuple_implILy3EJPjPN2me6WindowEEEC2IS0_JS3_EvEEOT_DpOT0_ @1369
    _ZNSt11_Tuple_implILy4EJPN2me6WindowEEE7_M_headERS3_ @1370
    _ZNSt11_Tuple_implILy4EJPN2me6WindowEEEC2IS2_EEOT_ @1371
    _ZNSt11__copy_moveILb0ELb0ESt26random_access_iterator_tagE12__assign_oneIfKfEEvPT_PT0_ @1372
    _ZNSt11__copy_moveILb0ELb0ESt26random_access_iterator_tagE12__assign_oneIffEEvPT_PT0_ @1373
    _ZNSt11__copy_moveILb0ELb0ESt26random_access_iterator_tagE8__copy_mIP11MusicStructS4_EET0_T_S6_S5_ @1374
    _ZNSt11__copy_moveILb0ELb0ESt26random_access_iterator_tagE8__copy_mIPK11MusicStructPS3_EET0_T_S8_S7_ @1375
    _ZNSt11__copy_moveILb0ELb1ESt26random_access_iterator_tagE8__copy_mIKffEEPT0_PT_S7_S5_ @1376
    _ZNSt11__copy_moveILb0ELb1ESt26random_access_iterator_tagE8__copy_mIffEEPT0_PT_S6_S4_ @1377
    _ZNSt11__copy_moveILb1ELb0ESt26random_access_iterator_tagE12__assign_oneIN2me3VBOES4_EEvPT_PT0_ @1378
    _ZNSt11__copy_moveILb1ELb0ESt26random_access_iterator_tagE12__assign_oneIjjEEvPT_PT0_ @1379
    _ZNSt11__copy_moveILb1ELb1ESt26random_access_iterator_tagE8__copy_mIN2me3VBOES4_EEPT0_PT_S8_S6_ @1380
    _ZNSt11__copy_moveILb1ELb1ESt26random_access_iterator_tagE8__copy_mIjjEEPT0_PT_S6_S4_ @1381
    _ZNSt11char_traitsIcE2ltERKcS2_ @1382
    _ZNSt11char_traitsIcE6lengthEPKc @1383
    _ZNSt11char_traitsIcE7compareEPKcS2_y @1384
    _ZNSt11char_traitsIwE6lengthEPKw @1385
    _ZNSt11this_thread9sleep_forIfSt5ratioILx1ELx1000EEEEvRKNSt6chrono8durationIT_T0_EE @1386
    _ZNSt11this_thread9sleep_forIxSt5ratioILx1ELx1000EEEEvRKNSt6chrono8durationIT_T0_EE @1387
    _ZNSt12_Destroy_auxILb0EE9__destroyIN9__gnu_cxx17__normal_iteratorIP11MusicStructSt6vectorIS4_SaIS4_EEEEEEvT_SA_ @1388
    _ZNSt12_Destroy_auxILb0EE9__destroyIP11MusicStructEEvT_S4_ @1389
    _ZNSt12_Destroy_auxILb1EE9__destroyIN9__gnu_cxx17__normal_iteratorIPfSt6vectorIfSaIfEEEEEEvT_S9_ @1390
    _ZNSt12_Destroy_auxILb1EE9__destroyIPN2me3VBOEEEvT_S5_ @1391
    _ZNSt12_Destroy_auxILb1EE9__destroyIPN3glm3vecILi2EfLNS2_9qualifierE0EEEEEvT_S7_ @1392
    _ZNSt12_Destroy_auxILb1EE9__destroyIPN3glm3vecILi3EfLNS2_9qualifierE0EEEEEvT_S7_ @1393
    _ZNSt12_Destroy_auxILb1EE9__destroyIPfEEvT_S3_ @1394
    _ZNSt12_Destroy_auxILb1EE9__destroyIPjEEvT_S3_ @1395
    _ZNSt12_Vector_baseI11MusicStructSaIS0_EE11_M_allocateEy @1396
    _ZNSt12_Vector_baseI11MusicStructSaIS0_EE12_Vector_implC1Ev @1397
    _ZNSt12_Vector_baseI11MusicStructSaIS0_EE12_Vector_implD1Ev @1398
    _ZNSt12_Vector_baseI11MusicStructSaIS0_EE13_M_deallocateEPS0_y @1399
    _ZNSt12_Vector_baseI11MusicStructSaIS0_EE17_Vector_impl_dataC2Ev @1400
    _ZNSt12_Vector_baseI11MusicStructSaIS0_EE19_M_get_Tp_allocatorEv @1401
    _ZNSt12_Vector_baseI11MusicStructSaIS0_EEC2Ev @1402
    _ZNSt12_Vector_baseI11MusicStructSaIS0_EED2Ev @1403
    _ZNSt12_Vector_baseIN2me3VBOESaIS1_EE11_M_allocateEy @1404
    _ZNSt12_Vector_baseIN2me3VBOESaIS1_EE12_Vector_implC1ERKS2_ @1405
    _ZNSt12_Vector_baseIN2me3VBOESaIS1_EE12_Vector_implC1Ev @1406
    _ZNSt12_Vector_baseIN2me3VBOESaIS1_EE12_Vector_implD1Ev @1407
    _ZNSt12_Vector_baseIN2me3VBOESaIS1_EE13_M_deallocateEPS1_y @1408
    _ZNSt12_Vector_baseIN2me3VBOESaIS1_EE17_M_create_storageEy @1409
    _ZNSt12_Vector_baseIN2me3VBOESaIS1_EE17_Vector_impl_dataC2Ev @1410
    _ZNSt12_Vector_baseIN2me3VBOESaIS1_EE19_M_get_Tp_allocatorEv @1411
    _ZNSt12_Vector_baseIN2me3VBOESaIS1_EEC2Ev @1412
    _ZNSt12_Vector_baseIN2me3VBOESaIS1_EEC2EyRKS2_ @1413
    _ZNSt12_Vector_baseIN2me3VBOESaIS1_EED2Ev @1414
    _ZNSt12_Vector_baseIN3glm3vecILi2EfLNS0_9qualifierE0EEESaIS3_EE11_M_allocateEy @1415
    _ZNSt12_Vector_baseIN3glm3vecILi2EfLNS0_9qualifierE0EEESaIS3_EE12_Vector_implC1Ev @1416
    _ZNSt12_Vector_baseIN3glm3vecILi2EfLNS0_9qualifierE0EEESaIS3_EE12_Vector_implD1Ev @1417
    _ZNSt12_Vector_baseIN3glm3vecILi2EfLNS0_9qualifierE0EEESaIS3_EE13_M_deallocateEPS3_y @1418
    _ZNSt12_Vector_baseIN3glm3vecILi2EfLNS0_9qualifierE0EEESaIS3_EE17_Vector_impl_dataC2Ev @1419
    _ZNSt12_Vector_baseIN3glm3vecILi2EfLNS0_9qualifierE0EEESaIS3_EE19_M_get_Tp_allocatorEv @1420
    _ZNSt12_Vector_baseIN3glm3vecILi2EfLNS0_9qualifierE0EEESaIS3_EEC2Ev @1421
    _ZNSt12_Vector_baseIN3glm3vecILi2EfLNS0_9qualifierE0EEESaIS3_EED2Ev @1422
    _ZNSt12_Vector_baseIN3glm3vecILi3EfLNS0_9qualifierE0EEESaIS3_EE11_M_allocateEy @1423
    _ZNSt12_Vector_baseIN3glm3vecILi3EfLNS0_9qualifierE0EEESaIS3_EE12_Vector_implC1Ev @1424
    _ZNSt12_Vector_baseIN3glm3vecILi3EfLNS0_9qualifierE0EEESaIS3_EE12_Vector_implD1Ev @1425
    _ZNSt12_Vector_baseIN3glm3vecILi3EfLNS0_9qualifierE0EEESaIS3_EE13_M_deallocateEPS3_y @1426
    _ZNSt12_Vector_baseIN3glm3vecILi3EfLNS0_9qualifierE0EEESaIS3_EE17_Vector_impl_dataC2Ev @1427
    _ZNSt12_Vector_baseIN3glm3vecILi3EfLNS0_9qualifierE0EEESaIS3_EE19_M_get_Tp_allocatorEv @1428
    _ZNSt12_Vector_baseIN3glm3vecILi3EfLNS0_9qualifierE0EEESaIS3_EEC2Ev @1429
    _ZNSt12_Vector_baseIN3glm3vecILi3EfLNS0_9qualifierE0EEESaIS3_EED2Ev @1430
    _ZNSt12_Vector_baseIPN2me7GObjectESaIS2_EE11_M_allocateEy @1431
    _ZNSt12_Vector_baseIPN2me7GObjectESaIS2_EE19_M_get_Tp_allocatorEv @1432
    _ZNSt12_Vector_baseIfSaIfEE11_M_allocateEy @1433
    _ZNSt12_Vector_baseIfSaIfEE12_Vector_implC1Ev @1434
    _ZNSt12_Vector_baseIfSaIfEE12_Vector_implD1Ev @1435
    _ZNSt12_Vector_baseIfSaIfEE13_M_deallocateEPfy @1436
    _ZNSt12_Vector_baseIfSaIfEE17_Vector_impl_dataC2Ev @1437
    _ZNSt12_Vector_baseIfSaIfEE19_M_get_Tp_allocatorEv @1438
    _ZNSt12_Vector_baseIfSaIfEEC2Ev @1439
    _ZNSt12_Vector_baseIfSaIfEED2Ev @1440
    _ZNSt12_Vector_baseIjSaIjEE11_M_allocateEy @1441
    _ZNSt12_Vector_baseIjSaIjEE12_Vector_implC1Ev @1442
    _ZNSt12_Vector_baseIjSaIjEE12_Vector_implD1Ev @1443
    _ZNSt12_Vector_baseIjSaIjEE13_M_deallocateEPjy @1444
    _ZNSt12_Vector_baseIjSaIjEE17_Vector_impl_dataC2Ev @1445
    _ZNSt12_Vector_baseIjSaIjEE19_M_get_Tp_allocatorEv @1446
    _ZNSt12_Vector_baseIjSaIjEEC2Ev @1447
    _ZNSt12_Vector_baseIjSaIjEED2Ev @1448
    _ZNSt13unordered_mapIN2me12CharPropertyENS0_8CharDataESt4hashIS1_ESt8equal_toIS1_ESaISt4pairIKS1_S2_EEEC1Ev @1449
    _ZNSt13unordered_mapIN2me12CharPropertyENS0_8CharDataESt4hashIS1_ESt8equal_toIS1_ESaISt4pairIKS1_S2_EEED1Ev @1450
    _ZNSt13unordered_setINSt7__cxx1112basic_stringIcSt11char_traitsIcESaIcEEESt4hashIS5_ESt8equal_toIS5_ESaIS5_EE3endEv @1451
    _ZNSt13unordered_setINSt7__cxx1112basic_stringIcSt11char_traitsIcESaIcEEESt4hashIS5_ESt8equal_toIS5_ESaIS5_EE4findERKS5_ @1452
    _ZNSt13unordered_setINSt7__cxx1112basic_stringIcSt11char_traitsIcESaIcEEESt4hashIS5_ESt8equal_toIS5_ESaIS5_EE6insertERKS5_ @1453
    _ZNSt13unordered_setINSt7__cxx1112basic_stringIcSt11char_traitsIcESaIcEEESt4hashIS5_ESt8equal_toIS5_ESaIS5_EEC1Ev @1454
    _ZNSt13unordered_setINSt7__cxx1112basic_stringIcSt11char_traitsIcESaIcEEESt4hashIS5_ESt8equal_toIS5_ESaIS5_EED1Ev @1455
    _ZNSt14numeric_limitsIfE7epsilonEv @1456
    _ZNSt15__new_allocatorI11MusicStructE10deallocateEPS0_y @1457
    _ZNSt15__new_allocatorI11MusicStructE8allocateEyPKv @1458
    _ZNSt15__new_allocatorI11MusicStructED2Ev @1459
    _ZNSt15__new_allocatorIN2me3VBOEE10deallocateEPS1_y @1460
    _ZNSt15__new_allocatorIN2me3VBOEE8allocateEyPKv @1461
    _ZNSt15__new_allocatorIN2me3VBOEED2Ev @1462
    _ZNSt15__new_allocatorIN3glm3vecILi2EfLNS0_9qualifierE0EEEE10deallocateEPS3_y @1463
    _ZNSt15__new_allocatorIN3glm3vecILi2EfLNS0_9qualifierE0EEEE8allocateEyPKv @1464
    _ZNSt15__new_allocatorIN3glm3vecILi2EfLNS0_9qualifierE0EEEED2Ev @1465
    _ZNSt15__new_allocatorIN3glm3vecILi3EfLNS0_9qualifierE0EEEE10deallocateEPS3_y @1466
    _ZNSt15__new_allocatorIN3glm3vecILi3EfLNS0_9qualifierE0EEEE8allocateEyPKv @1467
    _ZNSt15__new_allocatorIN3glm3vecILi3EfLNS0_9qualifierE0EEEED2Ev @1468
    _ZNSt15__new_allocatorINSt8__detail10_Hash_nodeINSt7__cxx1112basic_stringIcSt11char_traitsIcESaIcEEELb1EEEE10deallocateEPS8_y @1469
    _ZNSt15__new_allocatorINSt8__detail10_Hash_nodeINSt7__cxx1112basic_stringIcSt11char_traitsIcESaIcEEELb1EEEE8allocateEyPKv @1470
    _ZNSt15__new_allocatorINSt8__detail10_Hash_nodeINSt7__cxx1112basic_stringIcSt11char_traitsIcESaIcEEELb1EEEED2Ev @1471
    _ZNSt15__new_allocatorINSt8__detail10_Hash_nodeISt4pairIKN2me12CharPropertyENS3_8CharDataEELb1EEEE10deallocateEPS8_y @1472
    _ZNSt15__new_allocatorINSt8__detail10_Hash_nodeISt4pairIKN2me12CharPropertyENS3_8CharDataEELb1EEEED2Ev @1473
    _ZNSt15__new_allocatorIPN2me7GObjectEE10deallocateEPS2_y @1474
    _ZNSt15__new_allocatorIPN2me7GObjectEE8allocateEyPKv @1475
    _ZNSt15__new_allocatorIPNSt8__detail15_Hash_node_baseEE10deallocateEPS2_y @1476
    _ZNSt15__new_allocatorIPNSt8__detail15_Hash_node_baseEE8allocateEyPKv @1477
    _ZNSt15__new_allocatorIPNSt8__detail15_Hash_node_baseEED2Ev @1478
    _ZNSt15__new_allocatorIcED2Ev @1479
    _ZNSt15__new_allocatorIfE10deallocateEPfy @1480
    _ZNSt15__new_allocatorIfE8allocateEyPKv @1481
    _ZNSt15__new_allocatorIfED2Ev @1482
    _ZNSt15__new_allocatorIjE10deallocateEPjy @1483
    _ZNSt15__new_allocatorIjE8allocateEyPKv @1484
    _ZNSt15__new_allocatorIjED2Ev @1485
    _ZNSt15__new_allocatorIwED2Ev @1486
    _ZNSt15__uniq_ptr_dataINSt6thread6_StateESt14default_deleteIS1_ELb1ELb1EECI1St15__uniq_ptr_implIS1_S3_EEPS1_ @1487
    _ZNSt15__uniq_ptr_implIN2me9ObjLoaderESt14default_deleteIS1_EE10_M_deleterEv @1488
    _ZNSt15__uniq_ptr_implIN2me9ObjLoaderESt14default_deleteIS1_EE5resetEPS1_ @1489
    _ZNSt15__uniq_ptr_implIN2me9ObjLoaderESt14default_deleteIS1_EE6_M_ptrEv @1490
    _ZNSt15__uniq_ptr_implINSt6thread6_StateESt14default_deleteIS1_EE10_M_deleterEv @1491
    _ZNSt15__uniq_ptr_implINSt6thread6_StateESt14default_deleteIS1_EE6_M_ptrEv @1492
    _ZNSt15__uniq_ptr_implINSt6thread6_StateESt14default_deleteIS1_EEC2EPS1_ @1493
    _ZNSt19__ptr_traits_ptr_toIPNSt8__detail10_Hash_nodeINSt7__cxx1112basic_stringIcSt11char_traitsIcESaIcEEELb1EEES8_Lb0EE10pointer_toERS8_ @1494
    _ZNSt19__ptr_traits_ptr_toIPNSt8__detail10_Hash_nodeISt4pairIKN2me12CharPropertyENS3_8CharDataEELb1EEES8_Lb0EE10pointer_toERS8_ @1495
    _ZNSt19__ptr_traits_ptr_toIPPNSt8__detail15_Hash_node_baseES2_Lb0EE10pointer_toERS2_ @1496
    _ZNSt20__uninitialized_copyILb0EE13__uninit_copyIN9__gnu_cxx17__normal_iteratorIPK11MusicStructSt6vectorIS4_SaIS4_EEEEPS4_EET0_T_SD_SC_ @1497
    _ZNSt20__uninitialized_copyILb0EE13__uninit_copyIN9__gnu_cxx17__normal_iteratorIPKN2me3VBOESt6vectorIS5_SaIS5_EEEEPS5_EET0_T_SE_SD_ @1498
    _ZNSt20__uninitialized_copyILb0EE13__uninit_copyIP11MusicStructS3_EET0_T_S5_S4_ @1499
    _ZNSt20__uninitialized_copyILb1EE13__uninit_copyIN9__gnu_cxx17__normal_iteratorIPKfSt6vectorIfSaIfEEEEPfEET0_T_SC_SB_ @1500
    _ZNSt20__uninitialized_copyILb1EE13__uninit_copyIPfS2_EET0_T_S4_S3_ @1501
    _ZNSt4pairINSt8__detail14_Node_iteratorINSt7__cxx1112basic_stringIcSt11char_traitsIcESaIcEEELb1ELb1EEEbEC1IRS8_bLb1EEEOT_OT0_ @1502
    _ZNSt4pairINSt8__detail14_Node_iteratorINSt7__cxx1112basic_stringIcSt11char_traitsIcESaIcEEELb1ELb1EEEbEC1IS8_bLb1EEEOT_OT0_ @1503
    _ZNSt5tupleIJPNSt6thread6_StateESt14default_deleteIS1_EEEC1ILb1ELb1EEEv @1504
    _ZNSt6chrono13duration_castINS_8durationIfSt5ratioILx1ELx1000EEEExS2_ILx1ELx1EEEENSt9enable_ifIXsrNS_13__is_durationIT_EE5valueES8_E4typeERKNS1_IT0_T1_EE @1505
    _ZNSt6chrono13duration_castINS_8durationIfSt5ratioILx1ELx1000EEEExS3_EENSt9enable_ifIXsrNS_13__is_durationIT_EE5valueES7_E4typeERKNS1_IT0_T1_EE @1506
    _ZNSt6chrono13duration_castINS_8durationIxSt5ratioILx1ELx1000000000EEEEfS2_ILx1ELx1000EEEENSt9enable_ifIXsrNS_13__is_durationIT_EE5valueES8_E4typeERKNS1_IT0_T1_EE @1507
    _ZNSt6chrono13duration_castINS_8durationIxSt5ratioILx1ELx1000000000EEEExS2_ILx1ELx1000EEEENSt9enable_ifIXsrNS_13__is_durationIT_EE5valueES8_E4typeERKNS1_IT0_T1_EE @1508
    _ZNSt6chrono13duration_castINS_8durationIxSt5ratioILx1ELx1000EEEExS2_ILx1ELx1EEEENSt9enable_ifIXsrNS_13__is_durationIT_EE5valueES8_E4typeERKNS1_IT0_T1_EE @1509
    _ZNSt6chrono13duration_castINS_8durationIxSt5ratioILx1ELx1EEEEfS2_ILx1ELx1000EEEENSt9enable_ifIXsrNS_13__is_durationIT_EE5valueES8_E4typeERKNS1_IT0_T1_EE @1510
    _ZNSt6chrono13duration_castINS_8durationIxSt5ratioILx1ELx1EEEExS2_ILx1ELx1000EEEENSt9enable_ifIXsrNS_13__is_durationIT_EE5valueES8_E4typeERKNS1_IT0_T1_EE @1511
    _ZNSt6chrono15duration_valuesIfE4zeroEv @1512
    _ZNSt6chrono15duration_valuesIxE4zeroEv @1513
    _ZNSt6chrono20__duration_cast_implINS_8durationIfSt5ratioILx1ELx1000EEEES2_ILx1000ELx1EEfLb0ELb1EE6__castIxS2_ILx1ELx1EEEES4_RKNS1_IT_T0_EE @1514
    _ZNSt6chrono20__duration_cast_implINS_8durationIfSt5ratioILx1ELx1000EEEES2_ILx1ELx1EEfLb1ELb1EE6__castIxS3_EES4_RKNS1_IT_T0_EE @1515
    _ZNSt6chrono20__duration_cast_implINS_8durationIxSt5ratioILx1ELx1000000000EEEES2_ILx1000000ELx1EEfLb0ELb1EE6__castIfS2_ILx1ELx1000EEEES4_RKNS1_IT_T0_EE @1516
    _ZNSt6chrono20__duration_cast_implINS_8durationIxSt5ratioILx1ELx1000000000EEEES2_ILx1000000ELx1EExLb0ELb1EE6__castIxS2_ILx1ELx1000EEEES4_RKNS1_IT_T0_EE @1517
    _ZNSt6chrono20__duration_cast_implINS_8durationIxSt5ratioILx1ELx1000EEEES2_ILx1000ELx1EExLb0ELb1EE6__castIxS2_ILx1ELx1EEEES4_RKNS1_IT_T0_EE @1518
    _ZNSt6chrono20__duration_cast_implINS_8durationIxSt5ratioILx1ELx1EEEES2_ILx1ELx1000EEfLb1ELb0EE6__castIfS5_EES4_RKNS1_IT_T0_EE @1519
    _ZNSt6chrono20__duration_cast_implINS_8durationIxSt5ratioILx1ELx1EEEES2_ILx1ELx1000EExLb1ELb0EE6__castIxS5_EES4_RKNS1_IT_T0_EE @1520
    _ZNSt6chrono8durationIfSt5ratioILx1ELx1000EEE4zeroEv @1521
    _ZNSt6chrono8durationIfSt5ratioILx1ELx1000EEEC1IfvEERKT_ @1522
    _ZNSt6chrono8durationIfSt5ratioILx1ELx1000EEEC1IxS1_ILx1ELx1EEvEERKNS0_IT_T0_EE @1523
    _ZNSt6chrono8durationIfSt5ratioILx1ELx1000EEEC1IxS2_vEERKNS0_IT_T0_EE @1524
    _ZNSt6chrono8durationIxSt5ratioILx1ELx1000000000EEEC1IxvEERKT_ @1525
    _ZNSt6chrono8durationIxSt5ratioILx1ELx1000EEE4zeroEv @1526
    _ZNSt6chrono8durationIxSt5ratioILx1ELx1000EEEC1IxS1_ILx1ELx1EEvEERKNS0_IT_T0_EE @1527
    _ZNSt6chrono8durationIxSt5ratioILx1ELx1000EEEC1IxvEERKT_ @1528
    _ZNSt6chrono8durationIxSt5ratioILx1ELx1EEEC1IxvEERKT_ @1529
    _ZNSt6chronodvIxSt5ratioILx1ELx1000EEjEENS_8durationINSt9enable_ifIXsrSt14is_convertibleIRKNS4_IXntsrNS_13__is_durationIT1_EE5valueES7_E4typeENSt11common_typeIJT_SA_EE4typeEE5valueESG_E4typeET0_EERKNS3_ISE_SK_EERKS7_ @1530
    _ZNSt6chronoleIfSt5ratioILx1ELx1000EEfS2_EEbRKNS_8durationIT_T0_EERKNS3_IT1_T2_EE @1531
    _ZNSt6chronoleIxSt5ratioILx1ELx1000EExS2_EEbRKNS_8durationIT_T0_EERKNS3_IT1_T2_EE @1532
    _ZNSt6chronoltIfSt5ratioILx1ELx1000EEfS2_EEbRKNS_8durationIT_T0_EERKNS3_IT1_T2_EE @1533
    _ZNSt6chronoltIxSt5ratioILx1ELx1000EExS2_EEbRKNS_8durationIT_T0_EERKNS3_IT1_T2_EE @1534
    _ZNSt6chronomiIfSt5ratioILx1ELx1000EExS1_ILx1ELx1EEEENSt11common_typeIJNS_8durationIT_T0_EENS5_IT1_T2_EEEE4typeERKS8_RKSB_ @1535
    _ZNSt6chronomiIxSt5ratioILx1ELx1000EExS1_ILx1ELx1EEEENSt11common_typeIJNS_8durationIT_T0_EENS5_IT1_T2_EEEE4typeERKS8_RKSB_ @1536
    _ZNSt6chronomlIfxSt5ratioILx1ELx1000EEEENS_8durationINSt9enable_ifIXsrSt14is_convertibleIRKT_NSt11common_typeIJT0_S6_EE4typeEE5valueESC_E4typeET1_EES8_RKNS3_ISA_SG_EE @1537
    _ZNSt6chronomlIxSt5ratioILx1ELx1000EEfEENS_8durationINSt9enable_ifIXsrSt14is_convertibleIRKT1_NSt11common_typeIJT_S6_EE4typeEE5valueESC_E4typeET0_EERKNS3_ISA_SG_EES8_ @1538
    _ZNSt6thread24_M_thread_deps_never_runEv @1539
    _ZNSt6thread2idC1Ev @1540
    _ZNSt6thread4swapERS_ @1541
    _ZNSt6thread6_StateC2Ev @1542
    _ZNSt6threadC1Ev @1543
    _ZNSt6threadD1Ev @1544
    _ZNSt6threadaSEOS_ @1545
    _ZNSt6vectorI11MusicStructSaIS0_EE11_S_max_sizeERKS1_ @1546
    _ZNSt6vectorI11MusicStructSaIS0_EE11_S_relocateEPS0_S3_S3_RS1_ @1547
    _ZNSt6vectorI11MusicStructSaIS0_EE12emplace_backIJS0_EEERS0_DpOT_ @1548
    _ZNSt6vectorI11MusicStructSaIS0_EE15_M_erase_at_endEPS0_ @1549
    _ZNSt6vectorI11MusicStructSaIS0_EE17_M_realloc_appendIJRKS0_EEEvDpOT_ @1550
    _ZNSt6vectorI11MusicStructSaIS0_EE17_M_realloc_appendIJS0_EEEvDpOT_ @1551
    _ZNSt6vectorI11MusicStructSaIS0_EE20_M_allocate_and_copyIN9__gnu_cxx17__normal_iteratorIPKS0_S2_EEEEPS0_yT_SA_ @1552
    _ZNSt6vectorI11MusicStructSaIS0_EE3endEv @1553
    _ZNSt6vectorI11MusicStructSaIS0_EE4backEv @1554
    _ZNSt6vectorI11MusicStructSaIS0_EE5beginEv @1555
    _ZNSt6vectorI11MusicStructSaIS0_EE5clearEv @1556
    _ZNSt6vectorI11MusicStructSaIS0_EE9push_backEOS0_ @1557
    _ZNSt6vectorI11MusicStructSaIS0_EE9push_backERKS0_ @1558
    _ZNSt6vectorI11MusicStructSaIS0_EEC1Ev @1559
    _ZNSt6vectorI11MusicStructSaIS0_EED1Ev @1560
    _ZNSt6vectorI11MusicStructSaIS0_EEaSERKS2_ @1561
    _ZNSt6vectorIN2me3VBOESaIS1_EE11_S_max_sizeERKS2_ @1562
    _ZNSt6vectorIN2me3VBOESaIS1_EE11_S_relocateEPS1_S4_S4_RS2_ @1563
    _ZNSt6vectorIN2me3VBOESaIS1_EE12emplace_backIJS1_EEERS1_DpOT_ @1564
    _ZNSt6vectorIN2me3VBOESaIS1_EE15_M_erase_at_endEPS1_ @1565
    _ZNSt6vectorIN2me3VBOESaIS1_EE17_M_realloc_appendIJS1_EEEvDpOT_ @1566
    _ZNSt6vectorIN2me3VBOESaIS1_EE3endEv @1567
    _ZNSt6vectorIN2me3VBOESaIS1_EE4backEv @1568
    _ZNSt6vectorIN2me3VBOESaIS1_EE5beginEv @1569
    _ZNSt6vectorIN2me3VBOESaIS1_EE5eraseEN9__gnu_cxx17__normal_iteratorIPKS1_S3_EES8_ @1570
    _ZNSt6vectorIN2me3VBOESaIS1_EE8_M_eraseEN9__gnu_cxx17__normal_iteratorIPS1_S3_EES7_ @1571
    _ZNSt6vectorIN2me3VBOESaIS1_EE9push_backEOS1_ @1572
    _ZNSt6vectorIN2me3VBOESaIS1_EEC1ERKS3_ @1573
    _ZNSt6vectorIN2me3VBOESaIS1_EEC1Ev @1574
    _ZNSt6vectorIN2me3VBOESaIS1_EED1Ev @1575
    _ZNSt6vectorIN2me3VBOESaIS1_EEixEy @1576
    _ZNSt6vectorIN2sf16SoundFileFactory13ReaderFactoryESaIS2_EE17_M_realloc_insertIJRKS2_EEEvN9__gnu_cxx17__normal_iteratorIPS2_S4_EEDpOT_ @1577
    _ZNSt6vectorIN2sf16SoundFileFactory13WriterFactoryESaIS2_EE17_M_realloc_insertIJRKS2_EEEvN9__gnu_cxx17__normal_iteratorIPS2_S4_EEDpOT_ @1578
    _ZNSt6vectorIN2sf4priv11AudioDeviceESaIS2_EED1Ev @1579
    _ZNSt6vectorIN3glm3vecILi2EfLNS0_9qualifierE0EEESaIS3_EE11_S_max_sizeERKS4_ @1580
    _ZNSt6vectorIN3glm3vecILi2EfLNS0_9qualifierE0EEESaIS3_EE11_S_relocateEPS3_S6_S6_RS4_ @1581
    _ZNSt6vectorIN3glm3vecILi2EfLNS0_9qualifierE0EEESaIS3_EE12emplace_backIJS3_EEERS3_DpOT_ @1582
    _ZNSt6vectorIN3glm3vecILi2EfLNS0_9qualifierE0EEESaIS3_EE17_M_realloc_appendIJS3_EEEvDpOT_ @1583
    _ZNSt6vectorIN3glm3vecILi2EfLNS0_9qualifierE0EEESaIS3_EE3endEv @1584
    _ZNSt6vectorIN3glm3vecILi2EfLNS0_9qualifierE0EEESaIS3_EE4backEv @1585
    _ZNSt6vectorIN3glm3vecILi2EfLNS0_9qualifierE0EEESaIS3_EE5beginEv @1586
    _ZNSt6vectorIN3glm3vecILi2EfLNS0_9qualifierE0EEESaIS3_EE9push_backEOS3_ @1587
    _ZNSt6vectorIN3glm3vecILi2EfLNS0_9qualifierE0EEESaIS3_EEC1Ev @1588
    _ZNSt6vectorIN3glm3vecILi2EfLNS0_9qualifierE0EEESaIS3_EED1Ev @1589
    _ZNSt6vectorIN3glm3vecILi2EfLNS0_9qualifierE0EEESaIS3_EEixEy @1590
    _ZNSt6vectorIN3glm3vecILi3EfLNS0_9qualifierE0EEESaIS3_EE11_S_max_sizeERKS4_ @1591
    _ZNSt6vectorIN3glm3vecILi3EfLNS0_9qualifierE0EEESaIS3_EE11_S_relocateEPS3_S6_S6_RS4_ @1592
    _ZNSt6vectorIN3glm3vecILi3EfLNS0_9qualifierE0EEESaIS3_EE17_M_realloc_appendIJRKS3_EEEvDpOT_ @1593
    _ZNSt6vectorIN3glm3vecILi3EfLNS0_9qualifierE0EEESaIS3_EE3endEv @1594
    _ZNSt6vectorIN3glm3vecILi3EfLNS0_9qualifierE0EEESaIS3_EE5beginEv @1595
    _ZNSt6vectorIN3glm3vecILi3EfLNS0_9qualifierE0EEESaIS3_EE9push_backERKS3_ @1596
    _ZNSt6vectorIN3glm3vecILi3EfLNS0_9qualifierE0EEESaIS3_EEC1Ev @1597
    _ZNSt6vectorIN3glm3vecILi3EfLNS0_9qualifierE0EEESaIS3_EED1Ev @1598
    _ZNSt6vectorIN3glm3vecILi3EfLNS0_9qualifierE0EEESaIS3_EEixEy @1599
    _ZNSt6vectorIPN2me7GObjectESaIS2_EE11_S_max_sizeERKS3_ @1600
    _ZNSt6vectorIPN2me7GObjectESaIS2_EE11_S_relocateEPS2_S5_S5_RS3_ @1601
    _ZNSt6vectorIPN2me7GObjectESaIS2_EE17_M_realloc_appendIJRKS2_EEEvDpOT_ @1602
    _ZNSt6vectorIPN2me7GObjectESaIS2_EE3endEv @1603
    _ZNSt6vectorIPN2me7GObjectESaIS2_EE5beginEv @1604
    _ZNSt6vectorIPN2me7GObjectESaIS2_EE9push_backERKS2_ @1605
    _ZNSt6vectorIfSaIfEE11_S_max_sizeERKS0_ @1606
    _ZNSt6vectorIfSaIfEE11_S_relocateEPfS2_S2_RS0_ @1607
    _ZNSt6vectorIfSaIfEE15_M_erase_at_endEPf @1608
    _ZNSt6vectorIfSaIfEE17_M_realloc_appendIJRKfEEEvDpOT_ @1609
    _ZNSt6vectorIfSaIfEE20_M_allocate_and_copyIN9__gnu_cxx17__normal_iteratorIPKfS1_EEEEPfyT_S9_ @1610
    _ZNSt6vectorIfSaIfEE3endEv @1611
    _ZNSt6vectorIfSaIfEE5beginEv @1612
    _ZNSt6vectorIfSaIfEE5clearEv @1613
    _ZNSt6vectorIfSaIfEE9push_backERKf @1614
    _ZNSt6vectorIfSaIfEEC1Ev @1615
    _ZNSt6vectorIfSaIfEED1Ev @1616
    _ZNSt6vectorIfSaIfEEaSERKS1_ @1617
    _ZNSt6vectorIfSaIfEEixEy @1618
    _ZNSt6vectorIiSaIiEEixEy @1619
    _ZNSt6vectorIjSaIjEE11_S_max_sizeERKS0_ @1620
    _ZNSt6vectorIjSaIjEE11_S_relocateEPjS2_S2_RS0_ @1621
    _ZNSt6vectorIjSaIjEE15_M_erase_at_endEPj @1622
    _ZNSt6vectorIjSaIjEE17_M_realloc_appendIJRKjEEEvDpOT_ @1623
    _ZNSt6vectorIjSaIjEE3endEv @1624
    _ZNSt6vectorIjSaIjEE5beginEv @1625
    _ZNSt6vectorIjSaIjEE5eraseEN9__gnu_cxx17__normal_iteratorIPKjS1_EES6_ @1626
    _ZNSt6vectorIjSaIjEE8_M_eraseEN9__gnu_cxx17__normal_iteratorIPjS1_EES5_ @1627
    _ZNSt6vectorIjSaIjEE9push_backERKj @1628
    _ZNSt6vectorIjSaIjEEC1Ev @1629
    _ZNSt6vectorIjSaIjEED1Ev @1630
    _ZNSt6vectorIsSaIsEE17_M_default_appendEy @1631
    _ZNSt6vectorIsSaIsEE17_M_realloc_insertIJRKsEEEvN9__gnu_cxx17__normal_iteratorIPsS1_EEDpOT_ @1632
    _ZNSt7__cxx1112basic_stringIcSt11char_traitsIcESaIcEE12_Alloc_hiderD1Ev @1633
    _ZNSt7__cxx1112basic_stringIcSt11char_traitsIcESaIcEE12_M_constructIPKcEEvT_S8_St20forward_iterator_tag @1634
    _ZNSt7__cxx1112basic_stringIcSt11char_traitsIcESaIcEE22__resize_and_overwriteIZNS_9to_stringEjEUlPcyE_EEvyT_ @1635
    _ZNSt7__cxx1112basic_stringIcSt11char_traitsIcESaIcEE22__resize_and_overwriteIZNS_9to_stringElEUlPcyE_EEvyT_ @1636
    _ZNSt7__cxx1112basic_stringIcSt11char_traitsIcESaIcEEC1IS3_EEPKcRKS3_ @1637
    _ZNSt7__cxx1112basic_stringIwSt11char_traitsIwESaIwEE12_Alloc_hiderD1Ev @1638
    _ZNSt7__cxx1112basic_stringIwSt11char_traitsIwESaIwEE12_M_constructIPKwEEvT_S8_St20forward_iterator_tag @1639
    _ZNSt7__cxx1112basic_stringIwSt11char_traitsIwESaIwEEC1IS3_EEPKwRKS3_ @1640
    _ZNSt7__cxx119to_stringEj @1641
    _ZNSt7__cxx119to_stringEl @1642
    _ZNSt8__detail10_AllocNodeISaINS_10_Hash_nodeINSt7__cxx1112basic_stringIcSt11char_traitsIcESaIcEEELb1EEEEEC1ERNS_16_Hashtable_allocIS9_EE @1643
    _ZNSt8__detail10_Hash_nodeINSt7__cxx1112basic_stringIcSt11char_traitsIcESaIcEEELb1EEC1Ev @1644
    _ZNSt8__detail12_Insert_baseINSt7__cxx1112basic_stringIcSt11char_traitsIcESaIcEEES6_SaIS6_ENS_9_IdentityESt8equal_toIS6_ESt4hashIS6_ENS_18_Mod_range_hashingENS_20_Default_ranged_hashENS_20_Prime_rehash_policyENS_17_Hashtable_traitsILb1ELb1ELb1EEEE20_M_conjure_hashtableEv @1645
    _ZNSt8__detail12_Insert_baseINSt7__cxx1112basic_stringIcSt11char_traitsIcESaIcEEES6_SaIS6_ENS_9_IdentityESt8equal_toIS6_ESt4hashIS6_ENS_18_Mod_range_hashingENS_20_Default_ranged_hashENS_20_Prime_rehash_policyENS_17_Hashtable_traitsILb1ELb1ELb1EEEE6insertERKS6_ @1646
    _ZNSt8__detail12_NodeBuilderINS_9_IdentityEE8_S_buildIRKNSt7__cxx1112basic_stringIcSt11char_traitsIcESaIcEEESB_NS_10_AllocNodeISaINS_10_Hash_nodeIS9_Lb1EEEEEEEENT1_10__node_ptrEOT_OT0_RKSH_ @1647
    _ZNSt8__detail14_Node_iteratorINSt7__cxx1112basic_stringIcSt11char_traitsIcESaIcEEELb1ELb1EEC1EPNS_10_Hash_nodeIS6_Lb1EEE @1648
    _ZNSt8__detail14__to_chars_lenIjEEjT_i @1649
    _ZNSt8__detail14__to_chars_lenImEEjT_i @1650
    _ZNSt8__detail15_Hash_code_baseIN2me12CharPropertyESt4pairIKS2_NS1_8CharDataEENS_10_Select1stESt4hashIS2_ENS_18_Mod_range_hashingENS_20_Default_ranged_hashELb1EEC2Ev @1651
    _ZNSt8__detail15_Hash_code_baseINSt7__cxx1112basic_stringIcSt11char_traitsIcESaIcEEES6_NS_9_IdentityESt4hashIS6_ENS_18_Mod_range_hashingENS_20_Default_ranged_hashELb1EEC2Ev @1652
    _ZNSt8__detail15_Hash_node_baseC1Ev @1653
    _ZNSt8__detail15_Hash_node_baseC2Ev @1654
    _ZNSt8__detail15_Hashtable_baseIN2me12CharPropertyESt4pairIKS2_NS1_8CharDataEENS_10_Select1stESt8equal_toIS2_ESt4hashIS2_ENS_18_Mod_range_hashingENS_20_Default_ranged_hashENS_17_Hashtable_traitsILb1ELb0ELb1EEEEC2Ev @1655
    _ZNSt8__detail15_Hashtable_baseINSt7__cxx1112basic_stringIcSt11char_traitsIcESaIcEEES6_NS_9_IdentityESt8equal_toIS6_ESt4hashIS6_ENS_18_Mod_range_hashingENS_20_Default_ranged_hashENS_17_Hashtable_traitsILb1ELb1ELb1EEEE9_S_equalsEyRKNS_21_Hash_node_code_cacheILb1EEE @1656
    _ZNSt8__detail15_Hashtable_baseINSt7__cxx1112basic_stringIcSt11char_traitsIcESaIcEEES6_NS_9_IdentityESt8equal_toIS6_ESt4hashIS6_ENS_18_Mod_range_hashingENS_20_Default_ranged_hashENS_17_Hashtable_traitsILb1ELb1ELb1EEEEC2Ev @1657
    _ZNSt8__detail16_Hashtable_allocISaINS_10_Hash_nodeINSt7__cxx1112basic_stringIcSt11char_traitsIcESaIcEEELb1EEEEE16_M_allocate_nodeIJRKS7_EEEPS8_DpOT_ @1658
    _ZNSt8__detail16_Hashtable_allocISaINS_10_Hash_nodeINSt7__cxx1112basic_stringIcSt11char_traitsIcESaIcEEELb1EEEEE17_M_node_allocatorEv @1659
    _ZNSt8__detail16_Hashtable_allocISaINS_10_Hash_nodeINSt7__cxx1112basic_stringIcSt11char_traitsIcESaIcEEELb1EEEEE18_M_deallocate_nodeEPS8_ @1660
    _ZNSt8__detail16_Hashtable_allocISaINS_10_Hash_nodeINSt7__cxx1112basic_stringIcSt11char_traitsIcESaIcEEELb1EEEEE19_M_allocate_bucketsEy @1661
    _ZNSt8__detail16_Hashtable_allocISaINS_10_Hash_nodeINSt7__cxx1112basic_stringIcSt11char_traitsIcESaIcEEELb1EEEEE19_M_deallocate_nodesEPS8_ @1662
    _ZNSt8__detail16_Hashtable_allocISaINS_10_Hash_nodeINSt7__cxx1112basic_stringIcSt11char_traitsIcESaIcEEELb1EEEEE21_M_deallocate_bucketsEPPNS_15_Hash_node_baseEy @1663
    _ZNSt8__detail16_Hashtable_allocISaINS_10_Hash_nodeINSt7__cxx1112basic_stringIcSt11char_traitsIcESaIcEEELb1EEEEE22_M_deallocate_node_ptrEPS8_ @1664
    _ZNSt8__detail16_Hashtable_allocISaINS_10_Hash_nodeINSt7__cxx1112basic_stringIcSt11char_traitsIcESaIcEEELb1EEEEEC2Ev @1665
    _ZNSt8__detail16_Hashtable_allocISaINS_10_Hash_nodeINSt7__cxx1112basic_stringIcSt11char_traitsIcESaIcEEELb1EEEEED2Ev @1666
    _ZNSt8__detail16_Hashtable_allocISaINS_10_Hash_nodeISt4pairIKN2me12CharPropertyENS3_8CharDataEELb1EEEEE17_M_node_allocatorEv @1667
    _ZNSt8__detail16_Hashtable_allocISaINS_10_Hash_nodeISt4pairIKN2me12CharPropertyENS3_8CharDataEELb1EEEEE18_M_deallocate_nodeEPS8_ @1668
    _ZNSt8__detail16_Hashtable_allocISaINS_10_Hash_nodeISt4pairIKN2me12CharPropertyENS3_8CharDataEELb1EEEEE19_M_deallocate_nodesEPS8_ @1669
    _ZNSt8__detail16_Hashtable_allocISaINS_10_Hash_nodeISt4pairIKN2me12CharPropertyENS3_8CharDataEELb1EEEEE21_M_deallocate_bucketsEPPNS_15_Hash_node_baseEy @1670
    _ZNSt8__detail16_Hashtable_allocISaINS_10_Hash_nodeISt4pairIKN2me12CharPropertyENS3_8CharDataEELb1EEEEE22_M_deallocate_node_ptrEPS8_ @1671
    _ZNSt8__detail16_Hashtable_allocISaINS_10_Hash_nodeISt4pairIKN2me12CharPropertyENS3_8CharDataEELb1EEEEEC2Ev @1672
    _ZNSt8__detail16_Hashtable_allocISaINS_10_Hash_nodeISt4pairIKN2me12CharPropertyENS3_8CharDataEELb1EEEEED2Ev @1673
    _ZNSt8__detail17_RehashStateGuardINS_20_Prime_rehash_policyEEC1ERS1_ @1674
    _ZNSt8__detail17_RehashStateGuardINS_20_Prime_rehash_policyEED1Ev @1675
    _ZNSt8__detail18__to_chars_10_implIjEEvPcjT_ @1676
    _ZNSt8__detail18__to_chars_10_implImEEvPcjT_ @1677
    _ZNSt8__detail19_Node_iterator_baseINSt7__cxx1112basic_stringIcSt11char_traitsIcESaIcEEELb1EEC2EPNS_10_Hash_nodeIS6_Lb1EEE @1678
    _ZNSt8__detail20_Prime_rehash_policy8_M_resetEy @1679
    _ZNSt8__detail20_Prime_rehash_policyC1Ef @1680
    _ZNSt8__detail21_Hashtable_ebo_helperILi0ESaINS_10_Hash_nodeINSt7__cxx1112basic_stringIcSt11char_traitsIcESaIcEEELb1EEEELb1EE6_M_getEv @1681
    _ZNSt8__detail21_Hashtable_ebo_helperILi0ESaINS_10_Hash_nodeINSt7__cxx1112basic_stringIcSt11char_traitsIcESaIcEEELb1EEEELb1EEC2Ev @1682
    _ZNSt8__detail21_Hashtable_ebo_helperILi0ESaINS_10_Hash_nodeINSt7__cxx1112basic_stringIcSt11char_traitsIcESaIcEEELb1EEEELb1EED2Ev @1683
    _ZNSt8__detail21_Hashtable_ebo_helperILi0ESaINS_10_Hash_nodeISt4pairIKN2me12CharPropertyENS3_8CharDataEELb1EEEELb1EE6_M_getEv @1684
    _ZNSt8__detail21_Hashtable_ebo_helperILi0ESaINS_10_Hash_nodeISt4pairIKN2me12CharPropertyENS3_8CharDataEELb1EEEELb1EEC2Ev @1685
    _ZNSt8__detail21_Hashtable_ebo_helperILi0ESaINS_10_Hash_nodeISt4pairIKN2me12CharPropertyENS3_8CharDataEELb1EEEELb1EED2Ev @1686
    _ZNSt8__detail21_Hashtable_ebo_helperILi0ESt8equal_toIN2me12CharPropertyEELb1EEC2Ev @1687
    _ZNSt8__detail21_Hashtable_ebo_helperILi0ESt8equal_toINSt7__cxx1112basic_stringIcSt11char_traitsIcESaIcEEEELb1EEC2Ev @1688
    _ZNSt8__detail21_Hashtable_ebo_helperILi1ESt4hashIN2me12CharPropertyEELb1EEC2Ev @1689
    _ZNSt8__detail21_Hashtable_ebo_helperILi1ESt4hashINSt7__cxx1112basic_stringIcSt11char_traitsIcESaIcEEEELb1EEC2Ev @1690
    _ZNSt8__detail22_Hashtable_hash_traitsISt4hashINSt7__cxx1112basic_stringIcSt11char_traitsIcESaIcEEEEE22__small_size_thresholdEv @1691
    _ZNSt8__detaileqERKNS_19_Node_iterator_baseINSt7__cxx1112basic_stringIcSt11char_traitsIcESaIcEEELb1EEES9_ @1692
    _ZNSt8__detailneERKNS_19_Node_iterator_baseINSt7__cxx1112basic_stringIcSt11char_traitsIcESaIcEEELb1EEES9_ @1693
    _ZNSt8literals15chrono_literals16__check_overflowINSt6chrono8durationIxSt5ratioILx1ELx1000EEEEJLc49ELc48ELc48EEEET_v @1694
    _ZNSt8literals15chrono_literals16__check_overflowINSt6chrono8durationIxSt5ratioILx1ELx1000EEEEJLc49ELc48ELc48ELc48EEEET_v @1695
    _ZNSt8literals15chrono_literalsli2msIJLc49ELc48ELc48EEEENSt6chrono8durationIxSt5ratioILx1ELx1000EEEEv @1696
    _ZNSt8literals15chrono_literalsli2msIJLc49ELc48ELc48ELc48EEEENSt6chrono8durationIxSt5ratioILx1ELx1000EEEEv @1697
    _ZSt10_ConstructI11MusicStructJRKS0_EEvPT_DpOT0_ @1698
    _ZSt10_ConstructI11MusicStructJRS0_EEvPT_DpOT0_ @1699
    _ZSt10_ConstructIN2me3VBOEJRKS1_EEvPT_DpOT0_ @1700
    _ZSt11__addressofI11MusicStructEPT_RS1_ @1701
    _ZSt11__addressofIKSt6vectorI11MusicStructSaIS1_EEEPT_RS5_ @1702
    _ZSt11__addressofIKSt6vectorIfSaIfEEEPT_RS4_ @1703
    _ZSt11__addressofIN2me3VBOEEPT_RS2_ @1704
    _ZSt11__addressofINSt8__detail10_Hash_nodeINSt7__cxx1112basic_stringIcSt11char_traitsIcESaIcEEELb1EEEEPT_RS9_ @1705
    _ZSt11__addressofINSt8__detail10_Hash_nodeISt4pairIKN2me12CharPropertyENS3_8CharDataEELb1EEEEPT_RS9_ @1706
    _ZSt11__addressofINSt8__detail20_Prime_rehash_policyEEPT_RS2_ @1707
    _ZSt11__addressofIPNSt8__detail15_Hash_node_baseEEPT_RS3_ @1708
    _ZSt12__get_helperILy0EPN2me9ObjLoaderEJSt14default_deleteIS1_EEERKT0_RKSt11_Tuple_implIXT_EJS5_DpT1_EE @1709
    _ZSt12__get_helperILy0EPN2me9ObjLoaderEJSt14default_deleteIS1_EEERT0_RSt11_Tuple_implIXT_EJS5_DpT1_EE @1710
    _ZSt12__get_helperILy0EPNSt6thread6_StateEJSt14default_deleteIS1_EEERT0_RSt11_Tuple_implIXT_EJS5_DpT1_EE @1711
    _ZSt12__get_helperILy1EPbJPPFvRN2me6WindowEdPNS1_6CameraEEPjPS2_EERT0_RSt11_Tuple_implIXT_EJSB_DpT1_EE @1712
    _ZSt12__get_helperILy1ESt14default_deleteIN2me9ObjLoaderEEJEERT0_RSt11_Tuple_implIXT_EJS4_DpT1_EE @1713
    _ZSt12__get_helperILy1ESt14default_deleteINSt6thread6_StateEEJEERT0_RSt11_Tuple_implIXT_EJS4_DpT1_EE @1714
    _ZSt12__get_helperILy2EPPFvRN2me6WindowEdPNS0_6CameraEEJPjPS1_EERT0_RSt11_Tuple_implIXT_EJSA_DpT1_EE @1715
    _ZSt12__get_helperILy3EPjJPN2me6WindowEEERT0_RSt11_Tuple_implIXT_EJS4_DpT1_EE @1716
    _ZSt12__get_helperILy4EPN2me6WindowEJEERT0_RSt11_Tuple_implIXT_EJS3_DpT1_EE @1717
    _ZSt12__miter_baseIN9__gnu_cxx17__normal_iteratorIPK11MusicStructSt6vectorIS2_SaIS2_EEEEET_S9_ @1718
    _ZSt12__miter_baseIN9__gnu_cxx17__normal_iteratorIPKfSt6vectorIfSaIfEEEEET_S8_ @1719
    _ZSt12__miter_baseIN9__gnu_cxx17__normal_iteratorIPN2me3VBOESt6vectorIS3_SaIS3_EEEEET_S9_ @1720
    _ZSt12__miter_baseIN9__gnu_cxx17__normal_iteratorIPjSt6vectorIjSaIjEEEEET_S7_ @1721
    _ZSt12__miter_baseIP11MusicStructET_S2_ @1722
    _ZSt12__miter_baseIPfET_S1_ @1723
    _ZSt12__niter_baseIP11MusicStructET_S2_ @1724
    _ZSt12__niter_baseIP11MusicStructSt6vectorIS0_SaIS0_EEET_N9__gnu_cxx17__normal_iteratorIS5_T0_EE @1725
    _ZSt12__niter_baseIPK11MusicStructSt6vectorIS0_SaIS0_EEET_N9__gnu_cxx17__normal_iteratorIS6_T0_EE @1726
    _ZSt12__niter_baseIPKfSt6vectorIfSaIfEEET_N9__gnu_cxx17__normal_iteratorIS5_T0_EE @1727
    _ZSt12__niter_baseIPN2me3VBOEET_S3_ @1728
    _ZSt12__niter_baseIPN2me3VBOESt6vectorIS1_SaIS1_EEET_N9__gnu_cxx17__normal_iteratorIS6_T0_EE @1729
    _ZSt12__niter_baseIPN3glm3vecILi2EfLNS0_9qualifierE0EEEET_S5_ @1730
    _ZSt12__niter_baseIPN3glm3vecILi3EfLNS0_9qualifierE0EEEET_S5_ @1731
    _ZSt12__niter_baseIPPN2me7GObjectEET_S4_ @1732
    _ZSt12__niter_baseIPfET_S1_ @1733
    _ZSt12__niter_baseIPfSt6vectorIfSaIfEEET_N9__gnu_cxx17__normal_iteratorIS4_T0_EE @1734
    _ZSt12__niter_baseIPjET_S1_ @1735
    _ZSt12__niter_baseIPjSt6vectorIjSaIjEEET_N9__gnu_cxx17__normal_iteratorIS4_T0_EE @1736
    _ZSt12__niter_wrapIN9__gnu_cxx17__normal_iteratorIP11MusicStructSt6vectorIS2_SaIS2_EEEES3_ET_S8_T0_ @1737
    _ZSt12__niter_wrapIN9__gnu_cxx17__normal_iteratorIPN2me3VBOESt6vectorIS3_SaIS3_EEEES4_ET_S9_T0_ @1738
    _ZSt12__niter_wrapIN9__gnu_cxx17__normal_iteratorIPfSt6vectorIfSaIfEEEES2_ET_S7_T0_ @1739
    _ZSt12__niter_wrapIN9__gnu_cxx17__normal_iteratorIPjSt6vectorIjSaIjEEEES2_ET_S7_T0_ @1740
    _ZSt12__niter_wrapIP11MusicStructET_RKS2_S2_ @1741
    _ZSt12__niter_wrapIPfET_RKS1_S1_ @1742
    _ZSt12__relocate_aIP11MusicStructS1_SaIS0_EET0_T_S4_S3_RT1_ @1743
    _ZSt12__relocate_aIPN2me3VBOES2_SaIS1_EET0_T_S5_S4_RT1_ @1744
    _ZSt12__relocate_aIPN3glm3vecILi2EfLNS0_9qualifierE0EEES4_SaIS3_EET0_T_S7_S6_RT1_ @1745
    _ZSt12__relocate_aIPN3glm3vecILi3EfLNS0_9qualifierE0EEES4_SaIS3_EET0_T_S7_S6_RT1_ @1746
    _ZSt12__relocate_aIPPN2me7GObjectES3_SaIS2_EET0_T_S6_S5_RT1_ @1747
    _ZSt12__relocate_aIPfS0_SaIfEET0_T_S3_S2_RT1_ @1748
    _ZSt12__relocate_aIPjS0_SaIjEET0_T_S3_S2_RT1_ @1749
    _ZSt12__to_addressI11MusicStructEPT_S2_ @1750
    _ZSt12__to_addressIN2me3VBOEEPT_S3_ @1751
    _ZSt12__to_addressIN3glm3vecILi2EfLNS0_9qualifierE0EEEEPT_S5_ @1752
    _ZSt12__to_addressIN3glm3vecILi3EfLNS0_9qualifierE0EEEEPT_S5_ @1753
    _ZSt12__to_addressINSt8__detail10_Hash_nodeINSt7__cxx1112basic_stringIcSt11char_traitsIcESaIcEEELb1EEEEPT_SA_ @1754
    _ZSt12__to_addressIPN2me7GObjectEEPT_S4_ @1755
    _ZSt12__to_addressIPNSt8__detail15_Hash_node_baseEEPT_S4_ @1756
    _ZSt12__to_addressIfEPT_S1_ @1757
    _ZSt12__to_addressIjEPT_S1_ @1758
    _ZSt13__copy_move_aILb0EN9__gnu_cxx17__normal_iteratorIPK11MusicStructSt6vectorIS2_SaIS2_EEEENS1_IPS2_S7_EEET1_T0_SC_SB_ @1759
    _ZSt13__copy_move_aILb0EN9__gnu_cxx17__normal_iteratorIPKfSt6vectorIfSaIfEEEENS1_IPfS6_EEET1_T0_SB_SA_ @1760
    _ZSt13__copy_move_aILb0EN9__gnu_cxx17__normal_iteratorIPKfSt6vectorIfSaIfEEEEPfET1_T0_SA_S9_ @1761
    _ZSt13__copy_move_aILb0EP11MusicStructS1_ET1_T0_S3_S2_ @1762
    _ZSt13__copy_move_aILb0EPfS0_ET1_T0_S2_S1_ @1763
    _ZSt13__copy_move_aILb1EN9__gnu_cxx17__normal_iteratorIPN2me3VBOESt6vectorIS3_SaIS3_EEEES8_ET1_T0_SA_S9_ @1764
    _ZSt13__copy_move_aILb1EN9__gnu_cxx17__normal_iteratorIPjSt6vectorIjSaIjEEEES6_ET1_T0_S8_S7_ @1765
    _ZSt14__copy_move_a1ILb0EP11MusicStructS1_ET1_T0_S3_S2_ @1766
    _ZSt14__copy_move_a1ILb0EPK11MusicStructPS0_ET1_T0_S5_S4_ @1767
    _ZSt14__copy_move_a1ILb0EPKfPfET1_T0_S4_S3_ @1768
    _ZSt14__copy_move_a1ILb0EPfS0_ET1_T0_S2_S1_ @1769
    _ZSt14__copy_move_a1ILb1EPN2me3VBOES2_ET1_T0_S4_S3_ @1770
    _ZSt14__copy_move_a1ILb1EPjS0_ET1_T0_S2_S1_ @1771
    _ZSt14__copy_move_a2ILb0EP11MusicStructS1_ET1_T0_S3_S2_ @1772
    _ZSt14__copy_move_a2ILb0EPK11MusicStructPS0_ET1_T0_S5_S4_ @1773
    _ZSt14__copy_move_a2ILb0EPKfPfET1_T0_S4_S3_ @1774
    _ZSt14__copy_move_a2ILb0EPfS0_ET1_T0_S2_S1_ @1775
    _ZSt14__copy_move_a2ILb1EPN2me3VBOES2_ET1_T0_S4_S3_ @1776
    _ZSt14__copy_move_a2ILb1EPjS0_ET1_T0_S2_S1_ @1777
    _ZSt14__relocate_a_1IN3glm3vecILi2EfLNS0_9qualifierE0EEES3_ENSt9enable_ifIXsrSt24__is_bitwise_relocatableIT_vE5valueEPS6_E4typeES8_S8_S8_RSaIT0_E @1778
    _ZSt14__relocate_a_1IN3glm3vecILi3EfLNS0_9qualifierE0EEES3_ENSt9enable_ifIXsrSt24__is_bitwise_relocatableIT_vE5valueEPS6_E4typeES8_S8_S8_RSaIT0_E @1779
    _ZSt14__relocate_a_1IP11MusicStructS1_SaIS0_EET0_T_S4_S3_RT1_ @1780
    _ZSt14__relocate_a_1IPN2me3VBOES2_SaIS1_EET0_T_S5_S4_RT1_ @1781
    _ZSt14__relocate_a_1IPN2me7GObjectES2_ENSt9enable_ifIXsrSt24__is_bitwise_relocatableIT_vE5valueEPS5_E4typeES7_S7_S7_RSaIT0_E @1782
    _ZSt14__relocate_a_1IffENSt9enable_ifIXsrSt24__is_bitwise_relocatableIT_vE5valueEPS2_E4typeES4_S4_S4_RSaIT0_E @1783
    _ZSt14__relocate_a_1IjjENSt9enable_ifIXsrSt24__is_bitwise_relocatableIT_vE5valueEPS2_E4typeES4_S4_S4_RSaIT0_E @1784
    _ZSt16__do_uninit_copyIN9__gnu_cxx17__normal_iteratorIPK11MusicStructSt6vectorIS2_SaIS2_EEEEPS2_ET0_T_SB_SA_ @1785
    _ZSt16__do_uninit_copyIN9__gnu_cxx17__normal_iteratorIPKN2me3VBOESt6vectorIS3_SaIS3_EEEEPS3_ET0_T_SC_SB_ @1786
    _ZSt16__do_uninit_copyIP11MusicStructS1_ET0_T_S3_S2_ @1787
    _ZSt18uninitialized_copyIN9__gnu_cxx17__normal_iteratorIPK11MusicStructSt6vectorIS2_SaIS2_EEEEPS2_ET0_T_SB_SA_ @1788
    _ZSt18uninitialized_copyIN9__gnu_cxx17__normal_iteratorIPKN2me3VBOESt6vectorIS3_SaIS3_EEEEPS3_ET0_T_SC_SB_ @1789
    _ZSt18uninitialized_copyIN9__gnu_cxx17__normal_iteratorIPKfSt6vectorIfSaIfEEEEPfET0_T_SA_S9_ @1790
    _ZSt18uninitialized_copyIP11MusicStructS1_ET0_T_S3_S2_ @1791
    _ZSt18uninitialized_copyIPfS0_ET0_T_S2_S1_ @1792
    _ZSt19__relocate_object_aI11MusicStructS0_SaIS0_EEvPT_PT0_RT1_ @1793
    _ZSt19__relocate_object_aIN2me3VBOES1_SaIS1_EEvPT_PT0_RT1_ @1794
    _ZSt22__uninitialized_copy_aIN9__gnu_cxx17__normal_iteratorIPK11MusicStructSt6vectorIS2_SaIS2_EEEEPS2_S2_ET0_T_SB_SA_RSaIT1_E @1795
    _ZSt22__uninitialized_copy_aIN9__gnu_cxx17__normal_iteratorIPKN2me3VBOESt6vectorIS3_SaIS3_EEEEPS3_S3_ET0_T_SC_SB_RSaIT1_E @1796
    _ZSt22__uninitialized_copy_aIN9__gnu_cxx17__normal_iteratorIPKfSt6vectorIfSaIfEEEEPffET0_T_SA_S9_RSaIT1_E @1797
    _ZSt22__uninitialized_copy_aIP11MusicStructS1_S0_ET0_T_S3_S2_RSaIT1_E @1798
    _ZSt22__uninitialized_copy_aIPfS0_fET0_T_S2_S1_RSaIT1_E @1799
    _ZSt3cosf @1800
    _ZSt3getILy0EJPN2me9ObjLoaderESt14default_deleteIS1_EEERKNSt13tuple_elementIXT_ESt5tupleIJDpT0_EEE4typeERKS9_ @1801
    _ZSt3getILy0EJPN2me9ObjLoaderESt14default_deleteIS1_EEERNSt13tuple_elementIXT_ESt5tupleIJDpT0_EEE4typeERS9_ @1802
    _ZSt3getILy0EJPNSt6thread6_StateESt14default_deleteIS1_EEERNSt13tuple_elementIXT_ESt5tupleIJDpT0_EEE4typeERS9_ @1803
    _ZSt3getILy1EJPN2me9ObjLoaderESt14default_deleteIS1_EEERNSt13tuple_elementIXT_ESt5tupleIJDpT0_EEE4typeERS9_ @1804
    _ZSt3getILy1EJPNSt6thread6_StateESt14default_deleteIS1_EEERNSt13tuple_elementIXT_ESt5tupleIJDpT0_EEE4typeERS9_ @1805
    _ZSt3maxIyERKT_S2_S2_ @1806
    _ZSt3minIjERKT_S2_S2_ @1807
    _ZSt3minIyERKT_S2_S2_ @1808
    _ZSt3powff @1809
    _ZSt3sinf @1810
    _ZSt3tanf @1811
    _ZSt4copyIN9__gnu_cxx17__normal_iteratorIPK11MusicStructSt6vectorIS2_SaIS2_EEEENS1_IPS2_S7_EEET0_T_SC_SB_ @1812
    _ZSt4copyIN9__gnu_cxx17__normal_iteratorIPKfSt6vectorIfSaIfEEEENS1_IPfS6_EEET0_T_SB_SA_ @1813
    _ZSt4copyIN9__gnu_cxx17__normal_iteratorIPKfSt6vectorIfSaIfEEEEPfET0_T_SA_S9_ @1814
    _ZSt4copyIP11MusicStructS1_ET0_T_S3_S2_ @1815
    _ZSt4copyIPfS0_ET0_T_S2_S1_ @1816
    _ZSt4moveIN9__gnu_cxx17__normal_iteratorIPN2me3VBOESt6vectorIS3_SaIS3_EEEES8_ET0_T_SA_S9_ @1817
    _ZSt4moveIN9__gnu_cxx17__normal_iteratorIPjSt6vectorIjSaIjEEEES6_ET0_T_S8_S7_ @1818
    _ZSt4moveIR11MusicStructEONSt16remove_referenceIT_E4typeEOS3_ @1819
    _ZSt4moveIRN2me3VBOEEONSt16remove_referenceIT_E4typeEOS4_ @1820
    _ZSt4moveIRN3glm3vecILi2EfLNS0_9qualifierE0EEEEONSt16remove_referenceIT_E4typeEOS6_ @1821
    _ZSt4moveIRNSt6thread2idEEONSt16remove_referenceIT_E4typeEOS4_ @1822
    _ZSt4moveIRPN2me9ObjLoaderEEONSt16remove_referenceIT_E4typeEOS5_ @1823
    _ZSt4moveIRPNSt6thread6_StateEEONSt16remove_referenceIT_E4typeEOS5_ @1824
    _ZSt4moveIRZNSt7__cxx119to_stringEjEUlPcyE_EONSt16remove_referenceIT_E4typeEOS5_ @1825
    _ZSt4moveIRZNSt7__cxx119to_stringElEUlPcyE_EONSt16remove_referenceIT_E4typeEOS5_ @1826
    _ZSt4moveIRjEONSt16remove_referenceIT_E4typeEOS2_ @1827
    _ZSt4sqrtf @1828
    _ZSt4swapINSt6thread2idEENSt9enable_ifIXsrSt6__and_IJSt6__not_ISt15__is_tuple_likeIT_EESt21is_move_constructibleIS6_ESt18is_move_assignableIS6_EEE5valueEvE4typeERS6_SG_ @1829
    _ZSt5ldexpfi @1830
    _ZSt7forwardI11MusicStructEOT_RNSt16remove_referenceIS1_E4typeE @1831
    _ZSt7forwardIN2me3VBOEEOT_RNSt16remove_referenceIS2_E4typeE @1832
    _ZSt7forwardIN3glm3vecILi2EfLNS0_9qualifierE0EEEEOT_RNSt16remove_referenceIS4_E4typeE @1833
    _ZSt7forwardINSt8__detail14_Node_iteratorINSt7__cxx1112basic_stringIcSt11char_traitsIcESaIcEEELb1ELb1EEEEOT_RNSt16remove_referenceIS9_E4typeE @1834
    _ZSt7forwardIPN2me6WindowEEOT_RNSt16remove_referenceIS3_E4typeE @1835
    _ZSt7forwardIPPFvRN2me6WindowEdPNS0_6CameraEEEOT_RNSt16remove_referenceIS8_E4typeE @1836
    _ZSt7forwardIPbEOT_RNSt16remove_referenceIS1_E4typeE @1837
    _ZSt7forwardIPjEOT_RNSt16remove_referenceIS1_E4typeE @1838
    _ZSt7forwardIR11MusicStructEOT_RNSt16remove_referenceIS2_E4typeE @1839
    _ZSt7forwardIRK11MusicStructEOT_RNSt16remove_referenceIS3_E4typeE @1840
    _ZSt7forwardIRKN2me3VBOEEOT_RNSt16remove_referenceIS4_E4typeE @1841
    _ZSt7forwardIRKN3glm3vecILi3EfLNS0_9qualifierE0EEEEOT_RNSt16remove_referenceIS6_E4typeE @1842
    _ZSt7forwardIRKNSt7__cxx1112basic_stringIcSt11char_traitsIcESaIcEEEEOT_RNSt16remove_referenceIS8_E4typeE @1843
    _ZSt7forwardIRKPN2me7GObjectEEOT_RNSt16remove_referenceIS5_E4typeE @1844
    _ZSt7forwardIRKfEOT_RNSt16remove_referenceIS2_E4typeE @1845
    _ZSt7forwardIRKjEOT_RNSt16remove_referenceIS2_E4typeE @1846
    _ZSt7forwardIRNSt8__detail14_Node_iteratorINSt7__cxx1112basic_stringIcSt11char_traitsIcESaIcEEELb1ELb1EEEEOT_RNSt16remove_referenceISA_E4typeE @1847
    _ZSt7forwardIbEOT_RNSt16remove_referenceIS0_E4typeE @1848
    _ZSt8_DestroyI11MusicStructEvPT_ @1849
    _ZSt8_DestroyIN9__gnu_cxx17__normal_iteratorIP11MusicStructSt6vectorIS2_SaIS2_EEEEEvT_S8_ @1850
    _ZSt8_DestroyIN9__gnu_cxx17__normal_iteratorIPfSt6vectorIfSaIfEEEEEvT_S7_ @1851
    _ZSt8_DestroyIP11MusicStructEvT_S2_ @1852
    _ZSt8_DestroyIPN2me3VBOEEvT_S3_ @1853
    _ZSt8_DestroyIPN3glm3vecILi2EfLNS0_9qualifierE0EEEEvT_S5_ @1854
    _ZSt8_DestroyIPN3glm3vecILi3EfLNS0_9qualifierE0EEEEvT_S5_ @1855
    _ZSt8_DestroyIPfEvT_S1_ @1856
    _ZSt8_DestroyIPjEvT_S1_ @1857
    _ZSt9addressofINSt8__detail10_Hash_nodeINSt7__cxx1112basic_stringIcSt11char_traitsIcESaIcEEELb1EEEEPT_RS9_ @1858
    _ZSt9addressofINSt8__detail10_Hash_nodeISt4pairIKN2me12CharPropertyENS3_8CharDataEELb1EEEEPT_RS9_ @1859
    _ZSt9addressofIPNSt8__detail15_Hash_node_baseEEPT_RS3_ @1860
    _ZSteqIcSt11char_traitsIcESaIcEEbRKNSt7__cxx1112basic_stringIT_T0_T1_EESA_ @1861
    _ZSteqNSt6thread2idES0_ @1862
    _ZTIN2me5ModelE @1863 DATA
    _ZTIN2me6CameraE @1864 DATA
    _ZTIN2me7ChangerE @1865 DATA
    _ZTIN2me7GObjectE @1866 DATA
    _ZTIN2sf10AlResourceE @1867 DATA
    _ZTIN2sf11InputStreamE @1868 DATA
    _ZTIN2sf11NonCopyableE @1869 DATA
    _ZTIN2sf11SoundSourceE @1870 DATA
    _ZTIN2sf11SoundStreamE @1871 DATA
    _ZTIN2sf15FileInputStreamE @1872 DATA
    _ZTIN2sf15SoundFileReaderE @1873 DATA
    _ZTIN2sf15SoundFileWriterE @1874 DATA
    _ZTIN2sf17MemoryInputStreamE @1875 DATA
    _ZTIN2sf4priv10ThreadFuncE @1876 DATA
    _ZTIN2sf4priv16ThreadMemberFuncINS_11SoundStreamEEE @1877 DATA
    _ZTIN2sf4priv18SoundFileReaderMp3E @1878 DATA
    _ZTIN2sf4priv18SoundFileReaderOggE @1879 DATA
    _ZTIN2sf4priv18SoundFileReaderWavE @1880 DATA
    _ZTIN2sf4priv18SoundFileWriterOggE @1881 DATA
    _ZTIN2sf4priv18SoundFileWriterWavE @1882 DATA
    _ZTIN2sf4priv19SoundFileReaderFlacE @1883 DATA
    _ZTIN2sf4priv19SoundFileWriterFlacE @1884 DATA
    _ZTIN2sf5MusicE @1885 DATA
    _ZTINSt6thread6_StateE @1886 DATA
    _ZTSN2me5ModelE @1887 DATA
    _ZTSN2me6CameraE @1888 DATA
    _ZTSN2me7ChangerE @1889 DATA
    _ZTSN2me7GObjectE @1890 DATA
    _ZTSN2sf10AlResourceE @1891 DATA
    _ZTSN2sf11InputStreamE @1892 DATA
    _ZTSN2sf11NonCopyableE @1893 DATA
    _ZTSN2sf11SoundSourceE @1894 DATA
    _ZTSN2sf11SoundStreamE @1895 DATA
    _ZTSN2sf15FileInputStreamE @1896 DATA
    _ZTSN2sf15SoundFileReaderE @1897 DATA
    _ZTSN2sf15SoundFileWriterE @1898 DATA
    _ZTSN2sf17MemoryInputStreamE @1899 DATA
    _ZTSN2sf4priv10ThreadFuncE @1900 DATA
    _ZTSN2sf4priv16ThreadMemberFuncINS_11SoundStreamEEE @1901 DATA
    _ZTSN2sf4priv18SoundFileReaderMp3E @1902 DATA
    _ZTSN2sf4priv18SoundFileReaderOggE @1903 DATA
    _ZTSN2sf4priv18SoundFileReaderWavE @1904 DATA
    _ZTSN2sf4priv18SoundFileWriterOggE @1905 DATA
    _ZTSN2sf4priv18SoundFileWriterWavE @1906 DATA
    _ZTSN2sf4priv19SoundFileReaderFlacE @1907 DATA
    _ZTSN2sf4priv19SoundFileWriterFlacE @1908 DATA
    _ZTSN2sf5MusicE @1909 DATA
    _ZTSNSt6thread6_StateE @1910 DATA
    _ZTVN2me5ModelE @1911 DATA
    _ZTVN2me6CameraE @1912 DATA
    _ZTVN2me7ChangerE @1913 DATA
    _ZTVN2me7GObjectE @1914 DATA
    _ZTVN2sf11SoundSourceE @1915 DATA
    _ZTVN2sf11SoundStreamE @1916 DATA
    _ZTVN2sf15FileInputStreamE @1917 DATA
    _ZTVN2sf17MemoryInputStreamE @1918 DATA
    _ZTVN2sf4priv16ThreadMemberFuncINS_11SoundStreamEEE @1919 DATA
    _ZTVN2sf4priv18SoundFileReaderMp3E @1920 DATA
    _ZTVN2sf4priv18SoundFileReaderOggE @1921 DATA
    _ZTVN2sf4priv18SoundFileReaderWavE @1922 DATA
    _ZTVN2sf4priv18SoundFileWriterOggE @1923 DATA
    _ZTVN2sf4priv18SoundFileWriterWavE @1924 DATA
    _ZTVN2sf4priv19SoundFileReaderFlacE @1925 DATA
    _ZTVN2sf4priv19SoundFileWriterFlacE @1926 DATA
    _ZTVN2sf5MusicE @1927 DATA
    _ZZNSt6vectorI11MusicStructSaIS0_EE17_M_realloc_appendIJRKS0_EEEvDpOT_EN6_GuardC1EPS0_yRS1_ @1928
    _ZZNSt6vectorI11MusicStructSaIS0_EE17_M_realloc_appendIJRKS0_EEEvDpOT_EN6_GuardD1Ev @1929
    _ZZNSt6vectorI11MusicStructSaIS0_EE17_M_realloc_appendIJS0_EEEvDpOT_EN6_GuardC1EPS0_yRS1_ @1930
    _ZZNSt6vectorI11MusicStructSaIS0_EE17_M_realloc_appendIJS0_EEEvDpOT_EN6_GuardD1Ev @1931
    _ZZNSt6vectorIN2me3VBOESaIS1_EE17_M_realloc_appendIJS1_EEEvDpOT_EN6_GuardC1EPS1_yRS2_ @1932
    _ZZNSt6vectorIN2me3VBOESaIS1_EE17_M_realloc_appendIJS1_EEEvDpOT_EN6_GuardD1Ev @1933
    _ZZNSt6vectorIN3glm3vecILi2EfLNS0_9qualifierE0EEESaIS3_EE17_M_realloc_appendIJS3_EEEvDpOT_EN6_GuardC1EPS3_yRS4_ @1934
    _ZZNSt6vectorIN3glm3vecILi2EfLNS0_9qualifierE0EEESaIS3_EE17_M_realloc_appendIJS3_EEEvDpOT_EN6_GuardD1Ev @1935
    _ZZNSt6vectorIN3glm3vecILi3EfLNS0_9qualifierE0EEESaIS3_EE17_M_realloc_appendIJRKS3_EEEvDpOT_EN6_GuardC1EPS3_yRS4_ @1936
    _ZZNSt6vectorIN3glm3vecILi3EfLNS0_9qualifierE0EEESaIS3_EE17_M_realloc_appendIJRKS3_EEEvDpOT_EN6_GuardD1Ev @1937
    _ZZNSt6vectorIPN2me7GObjectESaIS2_EE17_M_realloc_appendIJRKS2_EEEvDpOT_EN6_GuardC1EPS2_yRS3_ @1938
    _ZZNSt6vectorIPN2me7GObjectESaIS2_EE17_M_realloc_appendIJRKS2_EEEvDpOT_EN6_GuardD1Ev @1939
    _ZZNSt6vectorIfSaIfEE17_M_realloc_appendIJRKfEEEvDpOT_EN6_GuardC1EPfyRS0_ @1940
    _ZZNSt6vectorIfSaIfEE17_M_realloc_appendIJRKfEEEvDpOT_EN6_GuardD1Ev @1941
    _ZZNSt6vectorIjSaIjEE17_M_realloc_appendIJRKjEEEvDpOT_EN6_GuardC1EPjyRS0_ @1942
    _ZZNSt6vectorIjSaIjEE17_M_realloc_appendIJRKjEEEvDpOT_EN6_GuardD1Ev @1943
    _ZZNSt7__cxx1112basic_stringIcSt11char_traitsIcESaIcEE12_M_constructIPKcEEvT_S8_St20forward_iterator_tagEN6_GuardC1EPS4_ @1944
    _ZZNSt7__cxx1112basic_stringIcSt11char_traitsIcESaIcEE12_M_constructIPKcEEvT_S8_St20forward_iterator_tagEN6_GuardD1Ev @1945
    _ZZNSt7__cxx1112basic_stringIcSt11char_traitsIcESaIcEE22__resize_and_overwriteIZNS_9to_stringEjEUlPcyE_EEvyT_EN11_TerminatorD1Ev @1946
    _ZZNSt7__cxx1112basic_stringIcSt11char_traitsIcESaIcEE22__resize_and_overwriteIZNS_9to_stringElEUlPcyE_EEvyT_EN11_TerminatorD1Ev @1947
    _ZZNSt7__cxx1112basic_stringIwSt11char_traitsIwESaIwEE12_M_constructIPKwEEvT_S8_St20forward_iterator_tagEN6_GuardC1EPS4_ @1948
    _ZZNSt7__cxx1112basic_stringIwSt11char_traitsIwESaIwEE12_M_constructIPKwEEvT_S8_St20forward_iterator_tagEN6_GuardD1Ev @1949
    _ZZNSt7__cxx119to_stringEjENKUlPcyE_clES0_y @1950
    _ZZNSt7__cxx119to_stringElENKUlPcyE_clES0_y @1951
    _ZdlPvS_ @1952
    _ZnwyPv @1953
    __GLEW_3DFX_multisample @1954 DATA
    __GLEW_3DFX_tbuffer @1955 DATA
    __GLEW_3DFX_texture_compression_FXT1 @1956 DATA
    __GLEW_AMD_blend_minmax_factor @1957 DATA
    __GLEW_AMD_compressed_3DC_texture @1958 DATA
    __GLEW_AMD_compressed_ATC_texture @1959 DATA
    __GLEW_AMD_conservative_depth @1960 DATA
    __GLEW_AMD_debug_output @1961 DATA
    __GLEW_AMD_depth_clamp_separate @1962 DATA
    __GLEW_AMD_draw_buffers_blend @1963 DATA
    __GLEW_AMD_framebuffer_multisample_advanced @1964 DATA
    __GLEW_AMD_framebuffer_sample_positions @1965 DATA
    __GLEW_AMD_gcn_shader @1966 DATA
    __GLEW_AMD_gpu_shader_half_float @1967 DATA
    __GLEW_AMD_gpu_shader_half_float_fetch @1968 DATA
    __GLEW_AMD_gpu_shader_int16 @1969 DATA
    __GLEW_AMD_gpu_shader_int64 @1970 DATA
    __GLEW_AMD_interleaved_elements @1971 DATA
    __GLEW_AMD_multi_draw_indirect @1972 DATA
    __GLEW_AMD_name_gen_delete @1973 DATA
    __GLEW_AMD_occlusion_query_event @1974 DATA
    __GLEW_AMD_performance_monitor @1975 DATA
    __GLEW_AMD_pinned_memory @1976 DATA
    __GLEW_AMD_program_binary_Z400 @1977 DATA
    __GLEW_AMD_query_buffer_object @1978 DATA
    __GLEW_AMD_sample_positions @1979 DATA
    __GLEW_AMD_seamless_cubemap_per_texture @1980 DATA
    __GLEW_AMD_shader_atomic_counter_ops @1981 DATA
    __GLEW_AMD_shader_ballot @1982 DATA
    __GLEW_AMD_shader_explicit_vertex_parameter @1983 DATA
    __GLEW_AMD_shader_image_load_store_lod @1984 DATA
    __GLEW_AMD_shader_stencil_export @1985 DATA
    __GLEW_AMD_shader_stencil_value_export @1986 DATA
    __GLEW_AMD_shader_trinary_minmax @1987 DATA
    __GLEW_AMD_sparse_texture @1988 DATA
    __GLEW_AMD_stencil_operation_extended @1989 DATA
    __GLEW_AMD_texture_gather_bias_lod @1990 DATA
    __GLEW_AMD_texture_texture4 @1991 DATA
    __GLEW_AMD_transform_feedback3_lines_triangles @1992 DATA
    __GLEW_AMD_transform_feedback4 @1993 DATA
    __GLEW_AMD_vertex_shader_layer @1994 DATA
    __GLEW_AMD_vertex_shader_tessellator @1995 DATA
    __GLEW_AMD_vertex_shader_viewport_index @1996 DATA
    __GLEW_ANDROID_extension_pack_es31a @1997 DATA
    __GLEW_ANGLE_depth_texture @1998 DATA
    __GLEW_ANGLE_framebuffer_blit @1999 DATA
    __GLEW_ANGLE_framebuffer_multisample @2000 DATA
    __GLEW_ANGLE_instanced_arrays @2001 DATA
    __GLEW_ANGLE_pack_reverse_row_order @2002 DATA
    __GLEW_ANGLE_program_binary @2003 DATA
    __GLEW_ANGLE_texture_compression_dxt1 @2004 DATA
    __GLEW_ANGLE_texture_compression_dxt3 @2005 DATA
    __GLEW_ANGLE_texture_compression_dxt5 @2006 DATA
    __GLEW_ANGLE_texture_usage @2007 DATA
    __GLEW_ANGLE_timer_query @2008 DATA
    __GLEW_ANGLE_translated_shader_source @2009 DATA
    __GLEW_APPLE_aux_depth_stencil @2010 DATA
    __GLEW_APPLE_client_storage @2011 DATA
    __GLEW_APPLE_clip_distance @2012 DATA
    __GLEW_APPLE_color_buffer_packed_float @2013 DATA
    __GLEW_APPLE_copy_texture_levels @2014 DATA
    __GLEW_APPLE_element_array @2015 DATA
    __GLEW_APPLE_fence @2016 DATA
    __GLEW_APPLE_float_pixels @2017 DATA
    __GLEW_APPLE_flush_buffer_range @2018 DATA
    __GLEW_APPLE_framebuffer_multisample @2019 DATA
    __GLEW_APPLE_object_purgeable @2020 DATA
    __GLEW_APPLE_pixel_buffer @2021 DATA
    __GLEW_APPLE_rgb_422 @2022 DATA
    __GLEW_APPLE_row_bytes @2023 DATA
    __GLEW_APPLE_specular_vector @2024 DATA
    __GLEW_APPLE_sync @2025 DATA
    __GLEW_APPLE_texture_2D_limited_npot @2026 DATA
    __GLEW_APPLE_texture_format_BGRA8888 @2027 DATA
    __GLEW_APPLE_texture_max_level @2028 DATA
    __GLEW_APPLE_texture_packed_float @2029 DATA
    __GLEW_APPLE_texture_range @2030 DATA
    __GLEW_APPLE_transform_hint @2031 DATA
    __GLEW_APPLE_vertex_array_object @2032 DATA
    __GLEW_APPLE_vertex_array_range @2033 DATA
    __GLEW_APPLE_vertex_program_evaluators @2034 DATA
    __GLEW_APPLE_ycbcr_422 @2035 DATA
    __GLEW_ARB_ES2_compatibility @2036 DATA
    __GLEW_ARB_ES3_1_compatibility @2037 DATA
    __GLEW_ARB_ES3_2_compatibility @2038 DATA
    __GLEW_ARB_ES3_compatibility @2039 DATA
    __GLEW_ARB_arrays_of_arrays @2040 DATA
    __GLEW_ARB_base_instance @2041 DATA
    __GLEW_ARB_bindless_texture @2042 DATA
    __GLEW_ARB_blend_func_extended @2043 DATA
    __GLEW_ARB_buffer_storage @2044 DATA
    __GLEW_ARB_cl_event @2045 DATA
    __GLEW_ARB_clear_buffer_object @2046 DATA
    __GLEW_ARB_clear_texture @2047 DATA
    __GLEW_ARB_clip_control @2048 DATA
    __GLEW_ARB_color_buffer_float @2049 DATA
    __GLEW_ARB_compatibility @2050 DATA
    __GLEW_ARB_compressed_texture_pixel_storage @2051 DATA
    __GLEW_ARB_compute_shader @2052 DATA
    __GLEW_ARB_compute_variable_group_size @2053 DATA
    __GLEW_ARB_conditional_render_inverted @2054 DATA
    __GLEW_ARB_conservative_depth @2055 DATA
    __GLEW_ARB_copy_buffer @2056 DATA
    __GLEW_ARB_copy_image @2057 DATA
    __GLEW_ARB_cull_distance @2058 DATA
    __GLEW_ARB_debug_output @2059 DATA
    __GLEW_ARB_depth_buffer_float @2060 DATA
    __GLEW_ARB_depth_clamp @2061 DATA
    __GLEW_ARB_depth_texture @2062 DATA
    __GLEW_ARB_derivative_control @2063 DATA
    __GLEW_ARB_direct_state_access @2064 DATA
    __GLEW_ARB_draw_buffers @2065 DATA
    __GLEW_ARB_draw_buffers_blend @2066 DATA
    __GLEW_ARB_draw_elements_base_vertex @2067 DATA
    __GLEW_ARB_draw_indirect @2068 DATA
    __GLEW_ARB_draw_instanced @2069 DATA
    __GLEW_ARB_enhanced_layouts @2070 DATA
    __GLEW_ARB_explicit_attrib_location @2071 DATA
    __GLEW_ARB_explicit_uniform_location @2072 DATA
    __GLEW_ARB_fragment_coord_conventions @2073 DATA
    __GLEW_ARB_fragment_layer_viewport @2074 DATA
    __GLEW_ARB_fragment_program @2075 DATA
    __GLEW_ARB_fragment_program_shadow @2076 DATA
    __GLEW_ARB_fragment_shader @2077 DATA
    __GLEW_ARB_fragment_shader_interlock @2078 DATA
    __GLEW_ARB_framebuffer_no_attachments @2079 DATA
    __GLEW_ARB_framebuffer_object @2080 DATA
    __GLEW_ARB_framebuffer_sRGB @2081 DATA
    __GLEW_ARB_geometry_shader4 @2082 DATA
    __GLEW_ARB_get_program_binary @2083 DATA
    __GLEW_ARB_get_texture_sub_image @2084 DATA
    __GLEW_ARB_gl_spirv @2085 DATA
    __GLEW_ARB_gpu_shader5 @2086 DATA
    __GLEW_ARB_gpu_shader_fp64 @2087 DATA
    __GLEW_ARB_gpu_shader_int64 @2088 DATA
    __GLEW_ARB_half_float_pixel @2089 DATA
    __GLEW_ARB_half_float_vertex @2090 DATA
    __GLEW_ARB_imaging @2091 DATA
    __GLEW_ARB_indirect_parameters @2092 DATA
    __GLEW_ARB_instanced_arrays @2093 DATA
    __GLEW_ARB_internalformat_query @2094 DATA
    __GLEW_ARB_internalformat_query2 @2095 DATA
    __GLEW_ARB_invalidate_subdata @2096 DATA
    __GLEW_ARB_map_buffer_alignment @2097 DATA
    __GLEW_ARB_map_buffer_range @2098 DATA
    __GLEW_ARB_matrix_palette @2099 DATA
    __GLEW_ARB_multi_bind @2100 DATA
    __GLEW_ARB_multi_draw_indirect @2101 DATA
    __GLEW_ARB_multisample @2102 DATA
    __GLEW_ARB_multitexture @2103 DATA
    __GLEW_ARB_occlusion_query @2104 DATA
    __GLEW_ARB_occlusion_query2 @2105 DATA
    __GLEW_ARB_parallel_shader_compile @2106 DATA
    __GLEW_ARB_pipeline_statistics_query @2107 DATA
    __GLEW_ARB_pixel_buffer_object @2108 DATA
    __GLEW_ARB_point_parameters @2109 DATA
    __GLEW_ARB_point_sprite @2110 DATA
    __GLEW_ARB_polygon_offset_clamp @2111 DATA
    __GLEW_ARB_post_depth_coverage @2112 DATA
    __GLEW_ARB_program_interface_query @2113 DATA
    __GLEW_ARB_provoking_vertex @2114 DATA
    __GLEW_ARB_query_buffer_object @2115 DATA
    __GLEW_ARB_robust_buffer_access_behavior @2116 DATA
    __GLEW_ARB_robustness @2117 DATA
    __GLEW_ARB_robustness_application_isolation @2118 DATA
    __GLEW_ARB_robustness_share_group_isolation @2119 DATA
    __GLEW_ARB_sample_locations @2120 DATA
    __GLEW_ARB_sample_shading @2121 DATA
    __GLEW_ARB_sampler_objects @2122 DATA
    __GLEW_ARB_seamless_cube_map @2123 DATA
    __GLEW_ARB_seamless_cubemap_per_texture @2124 DATA
    __GLEW_ARB_separate_shader_objects @2125 DATA
    __GLEW_ARB_shader_atomic_counter_ops @2126 DATA
    __GLEW_ARB_shader_atomic_counters @2127 DATA
    __GLEW_ARB_shader_ballot @2128 DATA
    __GLEW_ARB_shader_bit_encoding @2129 DATA
    __GLEW_ARB_shader_clock @2130 DATA
    __GLEW_ARB_shader_draw_parameters @2131 DATA
    __GLEW_ARB_shader_group_vote @2132 DATA
    __GLEW_ARB_shader_image_load_store @2133 DATA
    __GLEW_ARB_shader_image_size @2134 DATA
    __GLEW_ARB_shader_objects @2135 DATA
    __GLEW_ARB_shader_precision @2136 DATA
    __GLEW_ARB_shader_stencil_export @2137 DATA
    __GLEW_ARB_shader_storage_buffer_object @2138 DATA
    __GLEW_ARB_shader_subroutine @2139 DATA
    __GLEW_ARB_shader_texture_image_samples @2140 DATA
    __GLEW_ARB_shader_texture_lod @2141 DATA
    __GLEW_ARB_shader_viewport_layer_array @2142 DATA
    __GLEW_ARB_shading_language_100 @2143 DATA
    __GLEW_ARB_shading_language_420pack @2144 DATA
    __GLEW_ARB_shading_language_include @2145 DATA
    __GLEW_ARB_shading_language_packing @2146 DATA
    __GLEW_ARB_shadow @2147 DATA
    __GLEW_ARB_shadow_ambient @2148 DATA
    __GLEW_ARB_sparse_buffer @2149 DATA
    __GLEW_ARB_sparse_texture @2150 DATA
    __GLEW_ARB_sparse_texture2 @2151 DATA
    __GLEW_ARB_sparse_texture_clamp @2152 DATA
    __GLEW_ARB_spirv_extensions @2153 DATA
    __GLEW_ARB_stencil_texturing @2154 DATA
    __GLEW_ARB_sync @2155 DATA
    __GLEW_ARB_tessellation_shader @2156 DATA
    __GLEW_ARB_texture_barrier @2157 DATA
    __GLEW_ARB_texture_border_clamp @2158 DATA
    __GLEW_ARB_texture_buffer_object @2159 DATA
    __GLEW_ARB_texture_buffer_object_rgb32 @2160 DATA
    __GLEW_ARB_texture_buffer_range @2161 DATA
    __GLEW_ARB_texture_compression @2162 DATA
    __GLEW_ARB_texture_compression_bptc @2163 DATA
    __GLEW_ARB_texture_compression_rgtc @2164 DATA
    __GLEW_ARB_texture_cube_map @2165 DATA
    __GLEW_ARB_texture_cube_map_array @2166 DATA
    __GLEW_ARB_texture_env_add @2167 DATA
    __GLEW_ARB_texture_env_combine @2168 DATA
    __GLEW_ARB_texture_env_crossbar @2169 DATA
    __GLEW_ARB_texture_env_dot3 @2170 DATA
    __GLEW_ARB_texture_filter_anisotropic @2171 DATA
    __GLEW_ARB_texture_filter_minmax @2172 DATA
    __GLEW_ARB_texture_float @2173 DATA
    __GLEW_ARB_texture_gather @2174 DATA
    __GLEW_ARB_texture_mirror_clamp_to_edge @2175 DATA
    __GLEW_ARB_texture_mirrored_repeat @2176 DATA
    __GLEW_ARB_texture_multisample @2177 DATA
    __GLEW_ARB_texture_non_power_of_two @2178 DATA
    __GLEW_ARB_texture_query_levels @2179 DATA
    __GLEW_ARB_texture_query_lod @2180 DATA
    __GLEW_ARB_texture_rectangle @2181 DATA
    __GLEW_ARB_texture_rg @2182 DATA
    __GLEW_ARB_texture_rgb10_a2ui @2183 DATA
    __GLEW_ARB_texture_stencil8 @2184 DATA
    __GLEW_ARB_texture_storage @2185 DATA
    __GLEW_ARB_texture_storage_multisample @2186 DATA
    __GLEW_ARB_texture_swizzle @2187 DATA
    __GLEW_ARB_texture_view @2188 DATA
    __GLEW_ARB_timer_query @2189 DATA
    __GLEW_ARB_transform_feedback2 @2190 DATA
    __GLEW_ARB_transform_feedback3 @2191 DATA
    __GLEW_ARB_transform_feedback_instanced @2192 DATA
    __GLEW_ARB_transform_feedback_overflow_query @2193 DATA
    __GLEW_ARB_transpose_matrix @2194 DATA
    __GLEW_ARB_uniform_buffer_object @2195 DATA
    __GLEW_ARB_vertex_array_bgra @2196 DATA
    __GLEW_ARB_vertex_array_object @2197 DATA
    __GLEW_ARB_vertex_attrib_64bit @2198 DATA
    __GLEW_ARB_vertex_attrib_binding @2199 DATA
    __GLEW_ARB_vertex_blend @2200 DATA
    __GLEW_ARB_vertex_buffer_object @2201 DATA
    __GLEW_ARB_vertex_program @2202 DATA
    __GLEW_ARB_vertex_shader @2203 DATA
    __GLEW_ARB_vertex_type_10f_11f_11f_rev @2204 DATA
    __GLEW_ARB_vertex_type_2_10_10_10_rev @2205 DATA
    __GLEW_ARB_viewport_array @2206 DATA
    __GLEW_ARB_window_pos @2207 DATA
    __GLEW_ARM_mali_program_binary @2208 DATA
    __GLEW_ARM_mali_shader_binary @2209 DATA
    __GLEW_ARM_rgba8 @2210 DATA
    __GLEW_ARM_shader_framebuffer_fetch @2211 DATA
    __GLEW_ARM_shader_framebuffer_fetch_depth_stencil @2212 DATA
    __GLEW_ARM_texture_unnormalized_coordinates @2213 DATA
    __GLEW_ATIX_point_sprites @2214 DATA
    __GLEW_ATIX_texture_env_combine3 @2215 DATA
    __GLEW_ATIX_texture_env_route @2216 DATA
    __GLEW_ATIX_vertex_shader_output_point_size @2217 DATA
    __GLEW_ATI_draw_buffers @2218 DATA
    __GLEW_ATI_element_array @2219 DATA
    __GLEW_ATI_envmap_bumpmap @2220 DATA
    __GLEW_ATI_fragment_shader @2221 DATA
    __GLEW_ATI_map_object_buffer @2222 DATA
    __GLEW_ATI_meminfo @2223 DATA
    __GLEW_ATI_pn_triangles @2224 DATA
    __GLEW_ATI_separate_stencil @2225 DATA
    __GLEW_ATI_shader_texture_lod @2226 DATA
    __GLEW_ATI_text_fragment_shader @2227 DATA
    __GLEW_ATI_texture_compression_3dc @2228 DATA
    __GLEW_ATI_texture_env_combine3 @2229 DATA
    __GLEW_ATI_texture_float @2230 DATA
    __GLEW_ATI_texture_mirror_once @2231 DATA
    __GLEW_ATI_vertex_array_object @2232 DATA
    __GLEW_ATI_vertex_attrib_array_object @2233 DATA
    __GLEW_ATI_vertex_streams @2234 DATA
    __GLEW_DMP_program_binary @2235 DATA
    __GLEW_DMP_shader_binary @2236 DATA
    __GLEW_EXT_422_pixels @2237 DATA
    __GLEW_EXT_Cg_shader @2238 DATA
    __GLEW_EXT_EGL_image_array @2239 DATA
    __GLEW_EXT_EGL_image_external_wrap_modes @2240 DATA
    __GLEW_EXT_EGL_image_storage @2241 DATA
    __GLEW_EXT_EGL_sync @2242 DATA
    __GLEW_EXT_YUV_target @2243 DATA
    __GLEW_EXT_abgr @2244 DATA
    __GLEW_EXT_base_instance @2245 DATA
    __GLEW_EXT_bgra @2246 DATA
    __GLEW_EXT_bindable_uniform @2247 DATA
    __GLEW_EXT_blend_color @2248 DATA
    __GLEW_EXT_blend_equation_separate @2249 DATA
    __GLEW_EXT_blend_func_extended @2250 DATA
    __GLEW_EXT_blend_func_separate @2251 DATA
    __GLEW_EXT_blend_logic_op @2252 DATA
    __GLEW_EXT_blend_minmax @2253 DATA
    __GLEW_EXT_blend_subtract @2254 DATA
    __GLEW_EXT_buffer_storage @2255 DATA
    __GLEW_EXT_clear_texture @2256 DATA
    __GLEW_EXT_clip_control @2257 DATA
    __GLEW_EXT_clip_cull_distance @2258 DATA
    __GLEW_EXT_clip_volume_hint @2259 DATA
    __GLEW_EXT_cmyka @2260 DATA
    __GLEW_EXT_color_buffer_float @2261 DATA
    __GLEW_EXT_color_buffer_half_float @2262 DATA
    __GLEW_EXT_color_subtable @2263 DATA
    __GLEW_EXT_compiled_vertex_array @2264 DATA
    __GLEW_EXT_compressed_ETC1_RGB8_sub_texture @2265 DATA
    __GLEW_EXT_conservative_depth @2266 DATA
    __GLEW_EXT_convolution @2267 DATA
    __GLEW_EXT_coordinate_frame @2268 DATA
    __GLEW_EXT_copy_image @2269 DATA
    __GLEW_EXT_copy_texture @2270 DATA
    __GLEW_EXT_cull_vertex @2271 DATA
    __GLEW_EXT_debug_label @2272 DATA
    __GLEW_EXT_debug_marker @2273 DATA
    __GLEW_EXT_depth_bounds_test @2274 DATA
    __GLEW_EXT_depth_clamp @2275 DATA
    __GLEW_EXT_direct_state_access @2276 DATA
    __GLEW_EXT_discard_framebuffer @2277 DATA
    __GLEW_EXT_disjoint_timer_query @2278 DATA
    __GLEW_EXT_draw_buffers @2279 DATA
    __GLEW_EXT_draw_buffers2 @2280 DATA
    __GLEW_EXT_draw_buffers_indexed @2281 DATA
    __GLEW_EXT_draw_elements_base_vertex @2282 DATA
    __GLEW_EXT_draw_instanced @2283 DATA
    __GLEW_EXT_draw_range_elements @2284 DATA
    __GLEW_EXT_draw_transform_feedback @2285 DATA
    __GLEW_EXT_external_buffer @2286 DATA
    __GLEW_EXT_float_blend @2287 DATA
    __GLEW_EXT_fog_coord @2288 DATA
    __GLEW_EXT_frag_depth @2289 DATA
    __GLEW_EXT_fragment_lighting @2290 DATA
    __GLEW_EXT_framebuffer_blit @2291 DATA
    __GLEW_EXT_framebuffer_multisample @2292 DATA
    __GLEW_EXT_framebuffer_multisample_blit_scaled @2293 DATA
    __GLEW_EXT_framebuffer_object @2294 DATA
    __GLEW_EXT_framebuffer_sRGB @2295 DATA
    __GLEW_EXT_geometry_point_size @2296 DATA
    __GLEW_EXT_geometry_shader @2297 DATA
    __GLEW_EXT_geometry_shader4 @2298 DATA
    __GLEW_EXT_gpu_program_parameters @2299 DATA
    __GLEW_EXT_gpu_shader4 @2300 DATA
    __GLEW_EXT_gpu_shader5 @2301 DATA
    __GLEW_EXT_histogram @2302 DATA
    __GLEW_EXT_index_array_formats @2303 DATA
    __GLEW_EXT_index_func @2304 DATA
    __GLEW_EXT_index_material @2305 DATA
    __GLEW_EXT_index_texture @2306 DATA
    __GLEW_EXT_instanced_arrays @2307 DATA
    __GLEW_EXT_light_texture @2308 DATA
    __GLEW_EXT_map_buffer_range @2309 DATA
    __GLEW_EXT_memory_object @2310 DATA
    __GLEW_EXT_memory_object_fd @2311 DATA
    __GLEW_EXT_memory_object_win32 @2312 DATA
    __GLEW_EXT_misc_attribute @2313 DATA
    __GLEW_EXT_multi_draw_arrays @2314 DATA
    __GLEW_EXT_multi_draw_indirect @2315 DATA
    __GLEW_EXT_multiple_textures @2316 DATA
    __GLEW_EXT_multisample @2317 DATA
    __GLEW_EXT_multisample_compatibility @2318 DATA
    __GLEW_EXT_multisampled_render_to_texture @2319 DATA
    __GLEW_EXT_multisampled_render_to_texture2 @2320 DATA
    __GLEW_EXT_multiview_draw_buffers @2321 DATA
    __GLEW_EXT_multiview_tessellation_geometry_shader @2322 DATA
    __GLEW_EXT_multiview_texture_multisample @2323 DATA
    __GLEW_EXT_multiview_timer_query @2324 DATA
    __GLEW_EXT_occlusion_query_boolean @2325 DATA
    __GLEW_EXT_packed_depth_stencil @2326 DATA
    __GLEW_EXT_packed_float @2327 DATA
    __GLEW_EXT_packed_pixels @2328 DATA
    __GLEW_EXT_paletted_texture @2329 DATA
    __GLEW_EXT_pixel_buffer_object @2330 DATA
    __GLEW_EXT_pixel_transform @2331 DATA
    __GLEW_EXT_pixel_transform_color_table @2332 DATA
    __GLEW_EXT_point_parameters @2333 DATA
    __GLEW_EXT_polygon_offset @2334 DATA
    __GLEW_EXT_polygon_offset_clamp @2335 DATA
    __GLEW_EXT_post_depth_coverage @2336 DATA
    __GLEW_EXT_primitive_bounding_box @2337 DATA
    __GLEW_EXT_protected_textures @2338 DATA
    __GLEW_EXT_provoking_vertex @2339 DATA
    __GLEW_EXT_pvrtc_sRGB @2340 DATA
    __GLEW_EXT_raster_multisample @2341 DATA
    __GLEW_EXT_read_format_bgra @2342 DATA
    __GLEW_EXT_render_snorm @2343 DATA
    __GLEW_EXT_rescale_normal @2344 DATA
    __GLEW_EXT_robustness @2345 DATA
    __GLEW_EXT_sRGB @2346 DATA
    __GLEW_EXT_sRGB_write_control @2347 DATA
    __GLEW_EXT_scene_marker @2348 DATA
    __GLEW_EXT_secondary_color @2349 DATA
    __GLEW_EXT_semaphore @2350 DATA
    __GLEW_EXT_semaphore_fd @2351 DATA
    __GLEW_EXT_semaphore_win32 @2352 DATA
    __GLEW_EXT_separate_shader_objects @2353 DATA
    __GLEW_EXT_separate_specular_color @2354 DATA
    __GLEW_EXT_shader_framebuffer_fetch @2355 DATA
    __GLEW_EXT_shader_framebuffer_fetch_non_coherent @2356 DATA
    __GLEW_EXT_shader_group_vote @2357 DATA
    __GLEW_EXT_shader_image_load_formatted @2358 DATA
    __GLEW_EXT_shader_image_load_store @2359 DATA
    __GLEW_EXT_shader_implicit_conversions @2360 DATA
    __GLEW_EXT_shader_integer_mix @2361 DATA
    __GLEW_EXT_shader_io_blocks @2362 DATA
    __GLEW_EXT_shader_non_constant_global_initializers @2363 DATA
    __GLEW_EXT_shader_pixel_local_storage @2364 DATA
    __GLEW_EXT_shader_pixel_local_storage2 @2365 DATA
    __GLEW_EXT_shader_texture_lod @2366 DATA
    __GLEW_EXT_shadow_funcs @2367 DATA
    __GLEW_EXT_shadow_samplers @2368 DATA
    __GLEW_EXT_shared_texture_palette @2369 DATA
    __GLEW_EXT_sparse_texture @2370 DATA
    __GLEW_EXT_sparse_texture2 @2371 DATA
    __GLEW_EXT_static_vertex_array @2372 DATA
    __GLEW_EXT_stencil_clear_tag @2373 DATA
    __GLEW_EXT_stencil_two_side @2374 DATA
    __GLEW_EXT_stencil_wrap @2375 DATA
    __GLEW_EXT_subtexture @2376 DATA
    __GLEW_EXT_tessellation_point_size @2377 DATA
    __GLEW_EXT_tessellation_shader @2378 DATA
    __GLEW_EXT_texture @2379 DATA
    __GLEW_EXT_texture3D @2380 DATA
    __GLEW_EXT_texture_array @2381 DATA
    __GLEW_EXT_texture_border_clamp @2382 DATA
    __GLEW_EXT_texture_buffer @2383 DATA
    __GLEW_EXT_texture_buffer_object @2384 DATA
    __GLEW_EXT_texture_compression_astc_decode_mode @2385 DATA
    __GLEW_EXT_texture_compression_astc_decode_mode_rgb9e5 @2386 DATA
    __GLEW_EXT_texture_compression_bptc @2387 DATA
    __GLEW_EXT_texture_compression_dxt1 @2388 DATA
    __GLEW_EXT_texture_compression_latc @2389 DATA
    __GLEW_EXT_texture_compression_rgtc @2390 DATA
    __GLEW_EXT_texture_compression_s3tc @2391 DATA
    __GLEW_EXT_texture_compression_s3tc_srgb @2392 DATA
    __GLEW_EXT_texture_cube_map @2393 DATA
    __GLEW_EXT_texture_cube_map_array @2394 DATA
    __GLEW_EXT_texture_edge_clamp @2395 DATA
    __GLEW_EXT_texture_env @2396 DATA
    __GLEW_EXT_texture_env_add @2397 DATA
    __GLEW_EXT_texture_env_combine @2398 DATA
    __GLEW_EXT_texture_env_dot3 @2399 DATA
    __GLEW_EXT_texture_filter_anisotropic @2400 DATA
    __GLEW_EXT_texture_filter_minmax @2401 DATA
    __GLEW_EXT_texture_format_BGRA8888 @2402 DATA
    __GLEW_EXT_texture_format_sRGB_override @2403 DATA
    __GLEW_EXT_texture_integer @2404 DATA
    __GLEW_EXT_texture_lod_bias @2405 DATA
    __GLEW_EXT_texture_mirror_clamp @2406 DATA
    __GLEW_EXT_texture_mirror_clamp_to_edge @2407 DATA
    __GLEW_EXT_texture_norm16 @2408 DATA
    __GLEW_EXT_texture_object @2409 DATA
    __GLEW_EXT_texture_perturb_normal @2410 DATA
    __GLEW_EXT_texture_query_lod @2411 DATA
    __GLEW_EXT_texture_rectangle @2412 DATA
    __GLEW_EXT_texture_rg @2413 DATA
    __GLEW_EXT_texture_sRGB @2414 DATA
    __GLEW_EXT_texture_sRGB_R8 @2415 DATA
    __GLEW_EXT_texture_sRGB_RG8 @2416 DATA
    __GLEW_EXT_texture_sRGB_decode @2417 DATA
    __GLEW_EXT_texture_shadow_lod @2418 DATA
    __GLEW_EXT_texture_shared_exponent @2419 DATA
    __GLEW_EXT_texture_snorm @2420 DATA
    __GLEW_EXT_texture_storage @2421 DATA
    __GLEW_EXT_texture_swizzle @2422 DATA
    __GLEW_EXT_texture_type_2_10_10_10_REV @2423 DATA
    __GLEW_EXT_texture_view @2424 DATA
    __GLEW_EXT_timer_query @2425 DATA
    __GLEW_EXT_transform_feedback @2426 DATA
    __GLEW_EXT_unpack_subimage @2427 DATA
    __GLEW_EXT_vertex_array @2428 DATA
    __GLEW_EXT_vertex_array_bgra @2429 DATA
    __GLEW_EXT_vertex_array_setXXX @2430 DATA
    __GLEW_EXT_vertex_attrib_64bit @2431 DATA
    __GLEW_EXT_vertex_shader @2432 DATA
    __GLEW_EXT_vertex_weighting @2433 DATA
    __GLEW_EXT_win32_keyed_mutex @2434 DATA
    __GLEW_EXT_window_rectangles @2435 DATA
    __GLEW_EXT_x11_sync_object @2436 DATA
    __GLEW_FJ_shader_binary_GCCSO @2437 DATA
    __GLEW_GREMEDY_frame_terminator @2438 DATA
    __GLEW_GREMEDY_string_marker @2439 DATA
    __GLEW_HP_convolution_border_modes @2440 DATA
    __GLEW_HP_image_transform @2441 DATA
    __GLEW_HP_occlusion_test @2442 DATA
    __GLEW_HP_texture_lighting @2443 DATA
    __GLEW_IBM_cull_vertex @2444 DATA
    __GLEW_IBM_multimode_draw_arrays @2445 DATA
    __GLEW_IBM_rasterpos_clip @2446 DATA
    __GLEW_IBM_static_data @2447 DATA
    __GLEW_IBM_texture_mirrored_repeat @2448 DATA
    __GLEW_IBM_vertex_array_lists @2449 DATA
    __GLEW_IMG_bindless_texture @2450 DATA
    __GLEW_IMG_framebuffer_downsample @2451 DATA
    __GLEW_IMG_multisampled_render_to_texture @2452 DATA
    __GLEW_IMG_program_binary @2453 DATA
    __GLEW_IMG_read_format @2454 DATA
    __GLEW_IMG_shader_binary @2455 DATA
    __GLEW_IMG_texture_compression_pvrtc @2456 DATA
    __GLEW_IMG_texture_compression_pvrtc2 @2457 DATA
    __GLEW_IMG_texture_env_enhanced_fixed_function @2458 DATA
    __GLEW_IMG_texture_filter_cubic @2459 DATA
    __GLEW_INGR_color_clamp @2460 DATA
    __GLEW_INGR_interlace_read @2461 DATA
    __GLEW_INTEL_blackhole_render @2462 DATA
    __GLEW_INTEL_conservative_rasterization @2463 DATA
    __GLEW_INTEL_fragment_shader_ordering @2464 DATA
    __GLEW_INTEL_framebuffer_CMAA @2465 DATA
    __GLEW_INTEL_map_texture @2466 DATA
    __GLEW_INTEL_parallel_arrays @2467 DATA
    __GLEW_INTEL_performance_query @2468 DATA
    __GLEW_INTEL_shader_integer_functions2 @2469 DATA
    __GLEW_INTEL_texture_scissor @2470 DATA
    __GLEW_KHR_blend_equation_advanced @2471 DATA
    __GLEW_KHR_blend_equation_advanced_coherent @2472 DATA
    __GLEW_KHR_context_flush_control @2473 DATA
    __GLEW_KHR_debug @2474 DATA
    __GLEW_KHR_no_error @2475 DATA
    __GLEW_KHR_parallel_shader_compile @2476 DATA
    __GLEW_KHR_robust_buffer_access_behavior @2477 DATA
    __GLEW_KHR_robustness @2478 DATA
    __GLEW_KHR_shader_subgroup @2479 DATA
    __GLEW_KHR_texture_compression_astc_hdr @2480 DATA
    __GLEW_KHR_texture_compression_astc_ldr @2481 DATA
    __GLEW_KHR_texture_compression_astc_sliced_3d @2482 DATA
    __GLEW_KTX_buffer_region @2483 DATA
    __GLEW_MESAX_texture_stack @2484 DATA
    __GLEW_MESA_framebuffer_flip_y @2485 DATA
    __GLEW_MESA_pack_invert @2486 DATA
    __GLEW_MESA_program_binary_formats @2487 DATA
    __GLEW_MESA_resize_buffers @2488 DATA
    __GLEW_MESA_shader_integer_functions @2489 DATA
    __GLEW_MESA_tile_raster_order @2490 DATA
    __GLEW_MESA_window_pos @2491 DATA
    __GLEW_MESA_ycbcr_texture @2492 DATA
    __GLEW_NVX_blend_equation_advanced_multi_draw_buffers @2493 DATA
    __GLEW_NVX_conditional_render @2494 DATA
    __GLEW_NVX_gpu_memory_info @2495 DATA
    __GLEW_NVX_gpu_multicast2 @2496 DATA
    __GLEW_NVX_linked_gpu_multicast @2497 DATA
    __GLEW_NVX_progress_fence @2498 DATA
    __GLEW_NV_3dvision_settings @2499 DATA
    __GLEW_NV_EGL_stream_consumer_external @2500 DATA
    __GLEW_NV_alpha_to_coverage_dither_control @2501 DATA
    __GLEW_NV_bgr @2502 DATA
    __GLEW_NV_bindless_multi_draw_indirect @2503 DATA
    __GLEW_NV_bindless_multi_draw_indirect_count @2504 DATA
    __GLEW_NV_bindless_texture @2505 DATA
    __GLEW_NV_blend_equation_advanced @2506 DATA
    __GLEW_NV_blend_equation_advanced_coherent @2507 DATA
    __GLEW_NV_blend_minmax_factor @2508 DATA
    __GLEW_NV_blend_square @2509 DATA
    __GLEW_NV_clip_space_w_scaling @2510 DATA
    __GLEW_NV_command_list @2511 DATA
    __GLEW_NV_compute_program5 @2512 DATA
    __GLEW_NV_compute_shader_derivatives @2513 DATA
    __GLEW_NV_conditional_render @2514 DATA
    __GLEW_NV_conservative_raster @2515 DATA
    __GLEW_NV_conservative_raster_dilate @2516 DATA
    __GLEW_NV_conservative_raster_pre_snap @2517 DATA
    __GLEW_NV_conservative_raster_pre_snap_triangles @2518 DATA
    __GLEW_NV_conservative_raster_underestimation @2519 DATA
    __GLEW_NV_copy_buffer @2520 DATA
    __GLEW_NV_copy_depth_to_color @2521 DATA
    __GLEW_NV_copy_image @2522 DATA
    __GLEW_NV_deep_texture3D @2523 DATA
    __GLEW_NV_depth_buffer_float @2524 DATA
    __GLEW_NV_depth_clamp @2525 DATA
    __GLEW_NV_depth_nonlinear @2526 DATA
    __GLEW_NV_depth_range_unclamped @2527 DATA
    __GLEW_NV_draw_buffers @2528 DATA
    __GLEW_NV_draw_instanced @2529 DATA
    __GLEW_NV_draw_texture @2530 DATA
    __GLEW_NV_draw_vulkan_image @2531 DATA
    __GLEW_NV_evaluators @2532 DATA
    __GLEW_NV_explicit_attrib_location @2533 DATA
    __GLEW_NV_explicit_multisample @2534 DATA
    __GLEW_NV_fbo_color_attachments @2535 DATA
    __GLEW_NV_fence @2536 DATA
    __GLEW_NV_fill_rectangle @2537 DATA
    __GLEW_NV_float_buffer @2538 DATA
    __GLEW_NV_fog_distance @2539 DATA
    __GLEW_NV_fragment_coverage_to_color @2540 DATA
    __GLEW_NV_fragment_program @2541 DATA
    __GLEW_NV_fragment_program2 @2542 DATA
    __GLEW_NV_fragment_program4 @2543 DATA
    __GLEW_NV_fragment_program_option @2544 DATA
    __GLEW_NV_fragment_shader_barycentric @2545 DATA
    __GLEW_NV_fragment_shader_interlock @2546 DATA
    __GLEW_NV_framebuffer_blit @2547 DATA
    __GLEW_NV_framebuffer_mixed_samples @2548 DATA
    __GLEW_NV_framebuffer_multisample @2549 DATA
    __GLEW_NV_framebuffer_multisample_coverage @2550 DATA
    __GLEW_NV_generate_mipmap_sRGB @2551 DATA
    __GLEW_NV_geometry_program4 @2552 DATA
    __GLEW_NV_geometry_shader4 @2553 DATA
    __GLEW_NV_geometry_shader_passthrough @2554 DATA
    __GLEW_NV_gpu_multicast @2555 DATA
    __GLEW_NV_gpu_program4 @2556 DATA
    __GLEW_NV_gpu_program5 @2557 DATA
    __GLEW_NV_gpu_program5_mem_extended @2558 DATA
    __GLEW_NV_gpu_program_fp64 @2559 DATA
    __GLEW_NV_gpu_shader5 @2560 DATA
    __GLEW_NV_half_float @2561 DATA
    __GLEW_NV_image_formats @2562 DATA
    __GLEW_NV_instanced_arrays @2563 DATA
    __GLEW_NV_internalformat_sample_query @2564 DATA
    __GLEW_NV_light_max_exponent @2565 DATA
    __GLEW_NV_memory_attachment @2566 DATA
    __GLEW_NV_mesh_shader @2567 DATA
    __GLEW_NV_multisample_coverage @2568 DATA
    __GLEW_NV_multisample_filter_hint @2569 DATA
    __GLEW_NV_non_square_matrices @2570 DATA
    __GLEW_NV_occlusion_query @2571 DATA
    __GLEW_NV_pack_subimage @2572 DATA
    __GLEW_NV_packed_depth_stencil @2573 DATA
    __GLEW_NV_packed_float @2574 DATA
    __GLEW_NV_packed_float_linear @2575 DATA
    __GLEW_NV_parameter_buffer_object @2576 DATA
    __GLEW_NV_parameter_buffer_object2 @2577 DATA
    __GLEW_NV_path_rendering @2578 DATA
    __GLEW_NV_path_rendering_shared_edge @2579 DATA
    __GLEW_NV_pixel_buffer_object @2580 DATA
    __GLEW_NV_pixel_data_range @2581 DATA
    __GLEW_NV_platform_binary @2582 DATA
    __GLEW_NV_point_sprite @2583 DATA
    __GLEW_NV_polygon_mode @2584 DATA
    __GLEW_NV_present_video @2585 DATA
    __GLEW_NV_primitive_restart @2586 DATA
    __GLEW_NV_query_resource_tag @2587 DATA
    __GLEW_NV_read_buffer @2588 DATA
    __GLEW_NV_read_buffer_front @2589 DATA
    __GLEW_NV_read_depth @2590 DATA
    __GLEW_NV_read_depth_stencil @2591 DATA
    __GLEW_NV_read_stencil @2592 DATA
    __GLEW_NV_register_combiners @2593 DATA
    __GLEW_NV_register_combiners2 @2594 DATA
    __GLEW_NV_representative_fragment_test @2595 DATA
    __GLEW_NV_robustness_video_memory_purge @2596 DATA
    __GLEW_NV_sRGB_formats @2597 DATA
    __GLEW_NV_sample_locations @2598 DATA
    __GLEW_NV_sample_mask_override_coverage @2599 DATA
    __GLEW_NV_scissor_exclusive @2600 DATA
    __GLEW_NV_shader_atomic_counters @2601 DATA
    __GLEW_NV_shader_atomic_float @2602 DATA
    __GLEW_NV_shader_atomic_float64 @2603 DATA
    __GLEW_NV_shader_atomic_fp16_vector @2604 DATA
    __GLEW_NV_shader_atomic_int64 @2605 DATA
    __GLEW_NV_shader_buffer_load @2606 DATA
    __GLEW_NV_shader_noperspective_interpolation @2607 DATA
    __GLEW_NV_shader_storage_buffer_object @2608 DATA
    __GLEW_NV_shader_subgroup_partitioned @2609 DATA
    __GLEW_NV_shader_texture_footprint @2610 DATA
    __GLEW_NV_shader_thread_group @2611 DATA
    __GLEW_NV_shader_thread_shuffle @2612 DATA
    __GLEW_NV_shading_rate_image @2613 DATA
    __GLEW_NV_shadow_samplers_array @2614 DATA
    __GLEW_NV_shadow_samplers_cube @2615 DATA
    __GLEW_NV_stereo_view_rendering @2616 DATA
    __GLEW_NV_tessellation_program5 @2617 DATA
    __GLEW_NV_texgen_emboss @2618 DATA
    __GLEW_NV_texgen_reflection @2619 DATA
    __GLEW_NV_texture_array @2620 DATA
    __GLEW_NV_texture_barrier @2621 DATA
    __GLEW_NV_texture_border_clamp @2622 DATA
    __GLEW_NV_texture_compression_latc @2623 DATA
    __GLEW_NV_texture_compression_s3tc @2624 DATA
    __GLEW_NV_texture_compression_s3tc_update @2625 DATA
    __GLEW_NV_texture_compression_vtc @2626 DATA
    __GLEW_NV_texture_env_combine4 @2627 DATA
    __GLEW_NV_texture_expand_normal @2628 DATA
    __GLEW_NV_texture_multisample @2629 DATA
    __GLEW_NV_texture_npot_2D_mipmap @2630 DATA
    __GLEW_NV_texture_rectangle @2631 DATA
    __GLEW_NV_texture_rectangle_compressed @2632 DATA
    __GLEW_NV_texture_shader @2633 DATA
    __GLEW_NV_texture_shader2 @2634 DATA
    __GLEW_NV_texture_shader3 @2635 DATA
    __GLEW_NV_transform_feedback @2636 DATA
    __GLEW_NV_transform_feedback2 @2637 DATA
    __GLEW_NV_uniform_buffer_unified_memory @2638 DATA
    __GLEW_NV_vdpau_interop @2639 DATA
    __GLEW_NV_vdpau_interop2 @2640 DATA
    __GLEW_NV_vertex_array_range @2641 DATA
    __GLEW_NV_vertex_array_range2 @2642 DATA
    __GLEW_NV_vertex_attrib_integer_64bit @2643 DATA
    __GLEW_NV_vertex_buffer_unified_memory @2644 DATA
    __GLEW_NV_vertex_program @2645 DATA
    __GLEW_NV_vertex_program1_1 @2646 DATA
    __GLEW_NV_vertex_program2 @2647 DATA
    __GLEW_NV_vertex_program2_option @2648 DATA
    __GLEW_NV_vertex_program3 @2649 DATA
    __GLEW_NV_vertex_program4 @2650 DATA
    __GLEW_NV_video_capture @2651 DATA
    __GLEW_NV_viewport_array @2652 DATA
    __GLEW_NV_viewport_array2 @2653 DATA
    __GLEW_NV_viewport_swizzle @2654 DATA
    __GLEW_OES_EGL_image @2655 DATA
    __GLEW_OES_EGL_image_external @2656 DATA
    __GLEW_OES_EGL_image_external_essl3 @2657 DATA
    __GLEW_OES_blend_equation_separate @2658 DATA
    __GLEW_OES_blend_func_separate @2659 DATA
    __GLEW_OES_blend_subtract @2660 DATA
    __GLEW_OES_byte_coordinates @2661 DATA
    __GLEW_OES_compressed_ETC1_RGB8_texture @2662 DATA
    __GLEW_OES_compressed_paletted_texture @2663 DATA
    __GLEW_OES_copy_image @2664 DATA
    __GLEW_OES_depth24 @2665 DATA
    __GLEW_OES_depth32 @2666 DATA
    __GLEW_OES_depth_texture @2667 DATA
    __GLEW_OES_depth_texture_cube_map @2668 DATA
    __GLEW_OES_draw_buffers_indexed @2669 DATA
    __GLEW_OES_draw_texture @2670 DATA
    __GLEW_OES_element_index_uint @2671 DATA
    __GLEW_OES_extended_matrix_palette @2672 DATA
    __GLEW_OES_fbo_render_mipmap @2673 DATA
    __GLEW_OES_fragment_precision_high @2674 DATA
    __GLEW_OES_framebuffer_object @2675 DATA
    __GLEW_OES_geometry_point_size @2676 DATA
    __GLEW_OES_geometry_shader @2677 DATA
    __GLEW_OES_get_program_binary @2678 DATA
    __GLEW_OES_gpu_shader5 @2679 DATA
    __GLEW_OES_mapbuffer @2680 DATA
    __GLEW_OES_matrix_get @2681 DATA
    __GLEW_OES_matrix_palette @2682 DATA
    __GLEW_OES_packed_depth_stencil @2683 DATA
    __GLEW_OES_point_size_array @2684 DATA
    __GLEW_OES_point_sprite @2685 DATA
    __GLEW_OES_read_format @2686 DATA
    __GLEW_OES_required_internalformat @2687 DATA
    __GLEW_OES_rgb8_rgba8 @2688 DATA
    __GLEW_OES_sample_shading @2689 DATA
    __GLEW_OES_sample_variables @2690 DATA
    __GLEW_OES_shader_image_atomic @2691 DATA
    __GLEW_OES_shader_io_blocks @2692 DATA
    __GLEW_OES_shader_multisample_interpolation @2693 DATA
    __GLEW_OES_single_precision @2694 DATA
    __GLEW_OES_standard_derivatives @2695 DATA
    __GLEW_OES_stencil1 @2696 DATA
    __GLEW_OES_stencil4 @2697 DATA
    __GLEW_OES_stencil8 @2698 DATA
    __GLEW_OES_surfaceless_context @2699 DATA
    __GLEW_OES_tessellation_point_size @2700 DATA
    __GLEW_OES_tessellation_shader @2701 DATA
    __GLEW_OES_texture_3D @2702 DATA
    __GLEW_OES_texture_border_clamp @2703 DATA
    __GLEW_OES_texture_buffer @2704 DATA
    __GLEW_OES_texture_compression_astc @2705 DATA
    __GLEW_OES_texture_cube_map @2706 DATA
    __GLEW_OES_texture_cube_map_array @2707 DATA
    __GLEW_OES_texture_env_crossbar @2708 DATA
    __GLEW_OES_texture_mirrored_repeat @2709 DATA
    __GLEW_OES_texture_npot @2710 DATA
    __GLEW_OES_texture_stencil8 @2711 DATA
    __GLEW_OES_texture_storage_multisample_2d_array @2712 DATA
    __GLEW_OES_texture_view @2713 DATA
    __GLEW_OES_vertex_array_object @2714 DATA
    __GLEW_OES_vertex_half_float @2715 DATA
    __GLEW_OES_vertex_type_10_10_10_2 @2716 DATA
    __GLEW_OML_interlace @2717 DATA
    __GLEW_OML_resample @2718 DATA
    __GLEW_OML_subsample @2719 DATA
    __GLEW_OVR_multiview @2720 DATA
    __GLEW_OVR_multiview2 @2721 DATA
    __GLEW_OVR_multiview_multisampled_render_to_texture @2722 DATA
    __GLEW_PGI_misc_hints @2723 DATA
    __GLEW_PGI_vertex_hints @2724 DATA
    __GLEW_QCOM_YUV_texture_gather @2725 DATA
    __GLEW_QCOM_alpha_test @2726 DATA
    __GLEW_QCOM_binning_control @2727 DATA
    __GLEW_QCOM_driver_control @2728 DATA
    __GLEW_QCOM_extended_get @2729 DATA
    __GLEW_QCOM_extended_get2 @2730 DATA
    __GLEW_QCOM_framebuffer_foveated @2731 DATA
    __GLEW_QCOM_perfmon_global_mode @2732 DATA
    __GLEW_QCOM_shader_framebuffer_fetch_noncoherent @2733 DATA
    __GLEW_QCOM_shader_framebuffer_fetch_rate @2734 DATA
    __GLEW_QCOM_texture_foveated @2735 DATA
    __GLEW_QCOM_texture_foveated_subsampled_layout @2736 DATA
    __GLEW_QCOM_tiled_rendering @2737 DATA
    __GLEW_QCOM_writeonly_rendering @2738 DATA
    __GLEW_REGAL_ES1_0_compatibility @2739 DATA
    __GLEW_REGAL_ES1_1_compatibility @2740 DATA
    __GLEW_REGAL_enable @2741 DATA
    __GLEW_REGAL_error_string @2742 DATA
    __GLEW_REGAL_extension_query @2743 DATA
    __GLEW_REGAL_log @2744 DATA
    __GLEW_REGAL_proc_address @2745 DATA
    __GLEW_REND_screen_coordinates @2746 DATA
    __GLEW_S3_s3tc @2747 DATA
    __GLEW_SGIS_clip_band_hint @2748 DATA
    __GLEW_SGIS_color_range @2749 DATA
    __GLEW_SGIS_detail_texture @2750 DATA
    __GLEW_SGIS_fog_function @2751 DATA
    __GLEW_SGIS_generate_mipmap @2752 DATA
    __GLEW_SGIS_line_texgen @2753 DATA
    __GLEW_SGIS_multisample @2754 DATA
    __GLEW_SGIS_multitexture @2755 DATA
    __GLEW_SGIS_pixel_texture @2756 DATA
    __GLEW_SGIS_point_line_texgen @2757 DATA
    __GLEW_SGIS_shared_multisample @2758 DATA
    __GLEW_SGIS_sharpen_texture @2759 DATA
    __GLEW_SGIS_texture4D @2760 DATA
    __GLEW_SGIS_texture_border_clamp @2761 DATA
    __GLEW_SGIS_texture_edge_clamp @2762 DATA
    __GLEW_SGIS_texture_filter4 @2763 DATA
    __GLEW_SGIS_texture_lod @2764 DATA
    __GLEW_SGIS_texture_select @2765 DATA
    __GLEW_SGIX_async @2766 DATA
    __GLEW_SGIX_async_histogram @2767 DATA
    __GLEW_SGIX_async_pixel @2768 DATA
    __GLEW_SGIX_bali_g_instruments @2769 DATA
    __GLEW_SGIX_bali_r_instruments @2770 DATA
    __GLEW_SGIX_bali_timer_instruments @2771 DATA
    __GLEW_SGIX_blend_alpha_minmax @2772 DATA
    __GLEW_SGIX_blend_cadd @2773 DATA
    __GLEW_SGIX_blend_cmultiply @2774 DATA
    __GLEW_SGIX_calligraphic_fragment @2775 DATA
    __GLEW_SGIX_clipmap @2776 DATA
    __GLEW_SGIX_color_matrix_accuracy @2777 DATA
    __GLEW_SGIX_color_table_index_mode @2778 DATA
    __GLEW_SGIX_complex_polar @2779 DATA
    __GLEW_SGIX_convolution_accuracy @2780 DATA
    __GLEW_SGIX_cube_map @2781 DATA
    __GLEW_SGIX_cylinder_texgen @2782 DATA
    __GLEW_SGIX_datapipe @2783 DATA
    __GLEW_SGIX_decimation @2784 DATA
    __GLEW_SGIX_depth_pass_instrument @2785 DATA
    __GLEW_SGIX_depth_texture @2786 DATA
    __GLEW_SGIX_dvc @2787 DATA
    __GLEW_SGIX_flush_raster @2788 DATA
    __GLEW_SGIX_fog_blend @2789 DATA
    __GLEW_SGIX_fog_factor_to_alpha @2790 DATA
    __GLEW_SGIX_fog_layers @2791 DATA
    __GLEW_SGIX_fog_offset @2792 DATA
    __GLEW_SGIX_fog_patchy @2793 DATA
    __GLEW_SGIX_fog_scale @2794 DATA
    __GLEW_SGIX_fog_texture @2795 DATA
    __GLEW_SGIX_fragment_lighting_space @2796 DATA
    __GLEW_SGIX_fragment_specular_lighting @2797 DATA
    __GLEW_SGIX_fragments_instrument @2798 DATA
    __GLEW_SGIX_framezoom @2799 DATA
    __GLEW_SGIX_icc_texture @2800 DATA
    __GLEW_SGIX_igloo_interface @2801 DATA
    __GLEW_SGIX_image_compression @2802 DATA
    __GLEW_SGIX_impact_pixel_texture @2803 DATA
    __GLEW_SGIX_instrument_error @2804 DATA
    __GLEW_SGIX_interlace @2805 DATA
    __GLEW_SGIX_ir_instrument1 @2806 DATA
    __GLEW_SGIX_line_quality_hint @2807 DATA
    __GLEW_SGIX_list_priority @2808 DATA
    __GLEW_SGIX_mpeg1 @2809 DATA
    __GLEW_SGIX_mpeg2 @2810 DATA
    __GLEW_SGIX_nonlinear_lighting_pervertex @2811 DATA
    __GLEW_SGIX_nurbs_eval @2812 DATA
    __GLEW_SGIX_occlusion_instrument @2813 DATA
    __GLEW_SGIX_packed_6bytes @2814 DATA
    __GLEW_SGIX_pixel_texture @2815 DATA
    __GLEW_SGIX_pixel_texture_bits @2816 DATA
    __GLEW_SGIX_pixel_texture_lod @2817 DATA
    __GLEW_SGIX_pixel_tiles @2818 DATA
    __GLEW_SGIX_polynomial_ffd @2819 DATA
    __GLEW_SGIX_quad_mesh @2820 DATA
    __GLEW_SGIX_reference_plane @2821 DATA
    __GLEW_SGIX_resample @2822 DATA
    __GLEW_SGIX_scalebias_hint @2823 DATA
    __GLEW_SGIX_shadow @2824 DATA
    __GLEW_SGIX_shadow_ambient @2825 DATA
    __GLEW_SGIX_slim @2826 DATA
    __GLEW_SGIX_spotlight_cutoff @2827 DATA
    __GLEW_SGIX_sprite @2828 DATA
    __GLEW_SGIX_subdiv_patch @2829 DATA
    __GLEW_SGIX_subsample @2830 DATA
    __GLEW_SGIX_tag_sample_buffer @2831 DATA
    __GLEW_SGIX_texture_add_env @2832 DATA
    __GLEW_SGIX_texture_coordinate_clamp @2833 DATA
    __GLEW_SGIX_texture_lod_bias @2834 DATA
    __GLEW_SGIX_texture_mipmap_anisotropic @2835 DATA
    __GLEW_SGIX_texture_multi_buffer @2836 DATA
    __GLEW_SGIX_texture_phase @2837 DATA
    __GLEW_SGIX_texture_range @2838 DATA
    __GLEW_SGIX_texture_scale_bias @2839 DATA
    __GLEW_SGIX_texture_supersample @2840 DATA
    __GLEW_SGIX_vector_ops @2841 DATA
    __GLEW_SGIX_vertex_array_object @2842 DATA
    __GLEW_SGIX_vertex_preclip @2843 DATA
    __GLEW_SGIX_vertex_preclip_hint @2844 DATA
    __GLEW_SGIX_ycrcb @2845 DATA
    __GLEW_SGIX_ycrcb_subsample @2846 DATA
    __GLEW_SGIX_ycrcba @2847 DATA
    __GLEW_SGI_color_matrix @2848 DATA
    __GLEW_SGI_color_table @2849 DATA
    __GLEW_SGI_complex @2850 DATA
    __GLEW_SGI_complex_type @2851 DATA
    __GLEW_SGI_fft @2852 DATA
    __GLEW_SGI_texture_color_table @2853 DATA
    __GLEW_SUNX_constant_data @2854 DATA
    __GLEW_SUN_convolution_border_modes @2855 DATA
    __GLEW_SUN_global_alpha @2856 DATA
    __GLEW_SUN_mesh_array @2857 DATA
    __GLEW_SUN_read_video_pixels @2858 DATA
    __GLEW_SUN_slice_accum @2859 DATA
    __GLEW_SUN_triangle_list @2860 DATA
    __GLEW_SUN_vertex @2861 DATA
    __GLEW_VERSION_1_1 @2862 DATA
    __GLEW_VERSION_1_2 @2863 DATA
    __GLEW_VERSION_1_2_1 @2864 DATA
    __GLEW_VERSION_1_3 @2865 DATA
    __GLEW_VERSION_1_4 @2866 DATA
    __GLEW_VERSION_1_5 @2867 DATA
    __GLEW_VERSION_2_0 @2868 DATA
    __GLEW_VERSION_2_1 @2869 DATA
    __GLEW_VERSION_3_0 @2870 DATA
    __GLEW_VERSION_3_1 @2871 DATA
    __GLEW_VERSION_3_2 @2872 DATA
    __GLEW_VERSION_3_3 @2873 DATA
    __GLEW_VERSION_4_0 @2874 DATA
    __GLEW_VERSION_4_1 @2875 DATA
    __GLEW_VERSION_4_2 @2876 DATA
    __GLEW_VERSION_4_3 @2877 DATA
    __GLEW_VERSION_4_4 @2878 DATA
    __GLEW_VERSION_4_5 @2879 DATA
    __GLEW_VERSION_4_6 @2880 DATA
    __GLEW_VIV_shader_binary @2881 DATA
    __GLEW_WIN_phong_shading @2882 DATA
    __GLEW_WIN_scene_markerXXX @2883 DATA
    __GLEW_WIN_specular_fog @2884 DATA
    __GLEW_WIN_swap_hint @2885 DATA
    __WGLEW_3DFX_multisample @2886 DATA
    __WGLEW_3DL_stereo_control @2887 DATA
    __WGLEW_AMD_gpu_association @2888 DATA
    __WGLEW_ARB_buffer_region @2889 DATA
    __WGLEW_ARB_context_flush_control @2890 DATA
    __WGLEW_ARB_create_context @2891 DATA
    __WGLEW_ARB_create_context_no_error @2892 DATA
    __WGLEW_ARB_create_context_profile @2893 DATA
    __WGLEW_ARB_create_context_robustness @2894 DATA
    __WGLEW_ARB_extensions_string @2895 DATA
    __WGLEW_ARB_framebuffer_sRGB @2896 DATA
    __WGLEW_ARB_make_current_read @2897 DATA
    __WGLEW_ARB_multisample @2898 DATA
    __WGLEW_ARB_pbuffer @2899 DATA
    __WGLEW_ARB_pixel_format @2900 DATA
    __WGLEW_ARB_pixel_format_float @2901 DATA
    __WGLEW_ARB_render_texture @2902 DATA
    __WGLEW_ARB_robustness_application_isolation @2903 DATA
    __WGLEW_ARB_robustness_share_group_isolation @2904 DATA
    __WGLEW_ATI_pixel_format_float @2905 DATA
    __WGLEW_ATI_render_texture_rectangle @2906 DATA
    __WGLEW_EXT_colorspace @2907 DATA
    __WGLEW_EXT_create_context_es2_profile @2908 DATA
    __WGLEW_EXT_create_context_es_profile @2909 DATA
    __WGLEW_EXT_depth_float @2910 DATA
    __WGLEW_EXT_display_color_table @2911 DATA
    __WGLEW_EXT_extensions_string @2912 DATA
    __WGLEW_EXT_framebuffer_sRGB @2913 DATA
    __WGLEW_EXT_make_current_read @2914 DATA
    __WGLEW_EXT_multisample @2915 DATA
    __WGLEW_EXT_pbuffer @2916 DATA
    __WGLEW_EXT_pixel_format @2917 DATA
    __WGLEW_EXT_pixel_format_packed_float @2918 DATA
    __WGLEW_EXT_swap_control @2919 DATA
    __WGLEW_EXT_swap_control_tear @2920 DATA
    __WGLEW_I3D_digital_video_control @2921 DATA
    __WGLEW_I3D_gamma @2922 DATA
    __WGLEW_I3D_genlock @2923 DATA
    __WGLEW_I3D_image_buffer @2924 DATA
    __WGLEW_I3D_swap_frame_lock @2925 DATA
    __WGLEW_I3D_swap_frame_usage @2926 DATA
    __WGLEW_NV_DX_interop @2927 DATA
    __WGLEW_NV_DX_interop2 @2928 DATA
    __WGLEW_NV_copy_image @2929 DATA
    __WGLEW_NV_delay_before_swap @2930 DATA
    __WGLEW_NV_float_buffer @2931 DATA
    __WGLEW_NV_gpu_affinity @2932 DATA
    __WGLEW_NV_multigpu_context @2933 DATA
    __WGLEW_NV_multisample_coverage @2934 DATA
    __WGLEW_NV_present_video @2935 DATA
    __WGLEW_NV_render_depth_texture @2936 DATA
    __WGLEW_NV_render_texture_rectangle @2937 DATA
    __WGLEW_NV_swap_group @2938 DATA
    __WGLEW_NV_vertex_array_range @2939 DATA
    __WGLEW_NV_video_capture @2940 DATA
    __WGLEW_NV_video_output @2941 DATA
    __WGLEW_OML_sync_control @2942 DATA
    __glewAcquireKeyedMutexWin32EXT @2943 DATA
    __glewActiveProgramEXT @2944 DATA
    __glewActiveShaderProgram @2945 DATA
    __glewActiveStencilFaceEXT @2946 DATA
    __glewActiveTexture @2947 DATA
    __glewActiveTextureARB @2948 DATA
    __glewActiveVaryingNV @2949 DATA
    __glewAddSwapHintRectWIN @2950 DATA
    __glewAddressSpace @2951 DATA
    __glewAllocMPEGPredictorsSGIX @2952 DATA
    __glewAlphaFragmentOp1ATI @2953 DATA
    __glewAlphaFragmentOp2ATI @2954 DATA
    __glewAlphaFragmentOp3ATI @2955 DATA
    __glewAlphaFuncQCOM @2956 DATA
    __glewAlphaFuncx @2957 DATA
    __glewAlphaToCoverageDitherControlNV @2958 DATA
    __glewApplyTextureEXT @2959 DATA
    __glewAreProgramsResidentNV @2960 DATA
    __glewAreTexturesResidentEXT @2961 DATA
    __glewAreVertexArraysResidentSGIX @2962 DATA
    __glewArrayElementEXT @2963 DATA
    __glewArrayObjectATI @2964 DATA
    __glewAsyncCopyBufferSubDataNVX @2965 DATA
    __glewAsyncCopyImageSubDataNVX @2966 DATA
    __glewAsyncMarkerSGIX @2967 DATA
    __glewAttachObjectARB @2968 DATA
    __glewAttachShader @2969 DATA
    __glewBeginConditionalRender @2970 DATA
    __glewBeginConditionalRenderNV @2971 DATA
    __glewBeginConditionalRenderNVX @2972 DATA
    __glewBeginFragmentShaderATI @2973 DATA
    __glewBeginOcclusionQueryNV @2974 DATA
    __glewBeginPerfMonitorAMD @2975 DATA
    __glewBeginPerfQueryINTEL @2976 DATA
    __glewBeginQuery @2977 DATA
    __glewBeginQueryANGLE @2978 DATA
    __glewBeginQueryARB @2979 DATA
    __glewBeginQueryEXT @2980 DATA
    __glewBeginQueryIndexed @2981 DATA
    __glewBeginSceneEXT @2982 DATA
    __glewBeginTransformFeedback @2983 DATA
    __glewBeginTransformFeedbackEXT @2984 DATA
    __glewBeginTransformFeedbackNV @2985 DATA
    __glewBeginVertexShaderEXT @2986 DATA
    __glewBeginVideoCaptureNV @2987 DATA
    __glewBindArraySetEXT @2988 DATA
    __glewBindAttribLocation @2989 DATA
    __glewBindAttribLocationARB @2990 DATA
    __glewBindBuffer @2991 DATA
    __glewBindBufferARB @2992 DATA
    __glewBindBufferBase @2993 DATA
    __glewBindBufferBaseEXT @2994 DATA
    __glewBindBufferBaseNV @2995 DATA
    __glewBindBufferOffsetEXT @2996 DATA
    __glewBindBufferOffsetNV @2997 DATA
    __glewBindBufferRange @2998 DATA
    __glewBindBufferRangeEXT @2999 DATA
    __glewBindBufferRangeNV @3000 DATA
    __glewBindBuffersBase @3001 DATA
    __glewBindBuffersRange @3002 DATA
    __glewBindFragDataLocation @3003 DATA
    __glewBindFragDataLocationEXT @3004 DATA
    __glewBindFragDataLocationIndexed @3005 DATA
    __glewBindFragDataLocationIndexedEXT @3006 DATA
    __glewBindFragmentShaderATI @3007 DATA
    __glewBindFramebuffer @3008 DATA
    __glewBindFramebufferEXT @3009 DATA
    __glewBindFramebufferOES @3010 DATA
    __glewBindImageTexture @3011 DATA
    __glewBindImageTextureEXT @3012 DATA
    __glewBindImageTextures @3013 DATA
    __glewBindLightParameterEXT @3014 DATA
    __glewBindMaterialParameterEXT @3015 DATA
    __glewBindMultiTextureEXT @3016 DATA
    __glewBindParameterEXT @3017 DATA
    __glewBindProgramARB @3018 DATA
    __glewBindProgramNV @3019 DATA
    __glewBindProgramPipeline @3020 DATA
    __glewBindRenderbuffer @3021 DATA
    __glewBindRenderbufferEXT @3022 DATA
    __glewBindRenderbufferOES @3023 DATA
    __glewBindSampler @3024 DATA
    __glewBindSamplers @3025 DATA
    __glewBindShadingRateImageNV @3026 DATA
    __glewBindTexGenParameterEXT @3027 DATA
    __glewBindTextureEXT @3028 DATA
    __glewBindTextureUnit @3029 DATA
    __glewBindTextureUnitParameterEXT @3030 DATA
    __glewBindTextures @3031 DATA
    __glewBindTransformFeedback @3032 DATA
    __glewBindTransformFeedbackNV @3033 DATA
    __glewBindVertexArray @3034 DATA
    __glewBindVertexArrayAPPLE @3035 DATA
    __glewBindVertexArrayOES @3036 DATA
    __glewBindVertexArraySGIX @3037 DATA
    __glewBindVertexBuffer @3038 DATA
    __glewBindVertexBuffers @3039 DATA
    __glewBindVertexShaderEXT @3040 DATA
    __glewBindVideoCaptureStreamBufferNV @3041 DATA
    __glewBindVideoCaptureStreamTextureNV @3042 DATA
    __glewBinormalPointerEXT @3043 DATA
    __glewBlendBarrierKHR @3044 DATA
    __glewBlendBarrierNV @3045 DATA
    __glewBlendColor @3046 DATA
    __glewBlendColorEXT @3047 DATA
    __glewBlendEquation @3048 DATA
    __glewBlendEquationEXT @3049 DATA
    __glewBlendEquationIndexedAMD @3050 DATA
    __glewBlendEquationOES @3051 DATA
    __glewBlendEquationSeparate @3052 DATA
    __glewBlendEquationSeparateEXT @3053 DATA
    __glewBlendEquationSeparateIndexedAMD @3054 DATA
    __glewBlendEquationSeparateOES @3055 DATA
    __glewBlendEquationSeparatei @3056 DATA
    __glewBlendEquationSeparateiARB @3057 DATA
    __glewBlendEquationSeparateiEXT @3058 DATA
    __glewBlendEquationSeparateiOES @3059 DATA
    __glewBlendEquationi @3060 DATA
    __glewBlendEquationiARB @3061 DATA
    __glewBlendEquationiEXT @3062 DATA
    __glewBlendEquationiOES @3063 DATA
    __glewBlendFuncIndexedAMD @3064 DATA
    __glewBlendFuncSeparate @3065 DATA
    __glewBlendFuncSeparateEXT @3066 DATA
    __glewBlendFuncSeparateIndexedAMD @3067 DATA
    __glewBlendFuncSeparateOES @3068 DATA
    __glewBlendFuncSeparatei @3069 DATA
    __glewBlendFuncSeparateiARB @3070 DATA
    __glewBlendFuncSeparateiEXT @3071 DATA
    __glewBlendFuncSeparateiOES @3072 DATA
    __glewBlendFunci @3073 DATA
    __glewBlendFunciARB @3074 DATA
    __glewBlendFunciEXT @3075 DATA
    __glewBlendFunciOES @3076 DATA
    __glewBlendParameteriNV @3077 DATA
    __glewBlitFramebuffer @3078 DATA
    __glewBlitFramebufferANGLE @3079 DATA
    __glewBlitFramebufferEXT @3080 DATA
    __glewBlitFramebufferNV @3081 DATA
    __glewBlitNamedFramebuffer @3082 DATA
    __glewBufferAddressRangeNV @3083 DATA
    __glewBufferAttachMemoryNV @3084 DATA
    __glewBufferData @3085 DATA
    __glewBufferDataARB @3086 DATA
    __glewBufferPageCommitmentARB @3087 DATA
    __glewBufferParameteriAPPLE @3088 DATA
    __glewBufferRegionEnabled @3089 DATA
    __glewBufferStorage @3090 DATA
    __glewBufferStorageEXT @3091 DATA
    __glewBufferStorageExternalEXT @3092 DATA
    __glewBufferStorageMemEXT @3093 DATA
    __glewBufferSubData @3094 DATA
    __glewBufferSubDataARB @3095 DATA
    __glewCallCommandListNV @3096 DATA
    __glewCheckFramebufferStatus @3097 DATA
    __glewCheckFramebufferStatusEXT @3098 DATA
    __glewCheckFramebufferStatusOES @3099 DATA
    __glewCheckNamedFramebufferStatus @3100 DATA
    __glewCheckNamedFramebufferStatusEXT @3101 DATA
    __glewClampColor @3102 DATA
    __glewClampColorARB @3103 DATA
    __glewClearBufferData @3104 DATA
    __glewClearBufferSubData @3105 DATA
    __glewClearBufferfi @3106 DATA
    __glewClearBufferfv @3107 DATA
    __glewClearBufferiv @3108 DATA
    __glewClearBufferuiv @3109 DATA
    __glewClearColorIiEXT @3110 DATA
    __glewClearColorIuiEXT @3111 DATA
    __glewClearColorx @3112 DATA
    __glewClearDepthdNV @3113 DATA
    __glewClearDepthf @3114 DATA
    __glewClearDepthfOES @3115 DATA
    __glewClearDepthx @3116 DATA
    __glewClearNamedBufferData @3117 DATA
    __glewClearNamedBufferDataEXT @3118 DATA
    __glewClearNamedBufferSubData @3119 DATA
    __glewClearNamedBufferSubDataEXT @3120 DATA
    __glewClearNamedFramebufferfi @3121 DATA
    __glewClearNamedFramebufferfv @3122 DATA
    __glewClearNamedFramebufferiv @3123 DATA
    __glewClearNamedFramebufferuiv @3124 DATA
    __glewClearPixelLocalStorageuiEXT @3125 DATA
    __glewClearTexImage @3126 DATA
    __glewClearTexImageEXT @3127 DATA
    __glewClearTexSubImage @3128 DATA
    __glewClearTexSubImageEXT @3129 DATA
    __glewClientActiveTexture @3130 DATA
    __glewClientActiveTextureARB @3131 DATA
    __glewClientActiveVertexStreamATI @3132 DATA
    __glewClientAttribDefaultEXT @3133 DATA
    __glewClientWaitSemaphoreui64NVX @3134 DATA
    __glewClientWaitSync @3135 DATA
    __glewClientWaitSyncAPPLE @3136 DATA
    __glewClipControl @3137 DATA
    __glewClipControlEXT @3138 DATA
    __glewClipPlanef @3139 DATA
    __glewClipPlanefOES @3140 DATA
    __glewClipPlanex @3141 DATA
    __glewColor3fVertex3fSUN @3142 DATA
    __glewColor3fVertex3fvSUN @3143 DATA
    __glewColor3hNV @3144 DATA
    __glewColor3hvNV @3145 DATA
    __glewColor4fNormal3fVertex3fSUN @3146 DATA
    __glewColor4fNormal3fVertex3fvSUN @3147 DATA
    __glewColor4hNV @3148 DATA
    __glewColor4hvNV @3149 DATA
    __glewColor4ubVertex2fSUN @3150 DATA
    __glewColor4ubVertex2fvSUN @3151 DATA
    __glewColor4ubVertex3fSUN @3152 DATA
    __glewColor4ubVertex3fvSUN @3153 DATA
    __glewColor4x @3154 DATA
    __glewColorFormatNV @3155 DATA
    __glewColorFragmentOp1ATI @3156 DATA
    __glewColorFragmentOp2ATI @3157 DATA
    __glewColorFragmentOp3ATI @3158 DATA
    __glewColorMaskIndexedEXT @3159 DATA
    __glewColorMaski @3160 DATA
    __glewColorMaskiEXT @3161 DATA
    __glewColorMaskiOES @3162 DATA
    __glewColorP3ui @3163 DATA
    __glewColorP3uiv @3164 DATA
    __glewColorP4ui @3165 DATA
    __glewColorP4uiv @3166 DATA
    __glewColorPointerEXT @3167 DATA
    __glewColorPointerListIBM @3168 DATA
    __glewColorPointervINTEL @3169 DATA
    __glewColorSubTable @3170 DATA
    __glewColorSubTableEXT @3171 DATA
    __glewColorTable @3172 DATA
    __glewColorTableEXT @3173 DATA
    __glewColorTableParameterfv @3174 DATA
    __glewColorTableParameterfvSGI @3175 DATA
    __glewColorTableParameteriv @3176 DATA
    __glewColorTableParameterivSGI @3177 DATA
    __glewColorTableSGI @3178 DATA
    __glewCombinerInputNV @3179 DATA
    __glewCombinerOutputNV @3180 DATA
    __glewCombinerParameterfNV @3181 DATA
    __glewCombinerParameterfvNV @3182 DATA
    __glewCombinerParameteriNV @3183 DATA
    __glewCombinerParameterivNV @3184 DATA
    __glewCombinerStageParameterfvNV @3185 DATA
    __glewCommandListSegmentsNV @3186 DATA
    __glewCompileCommandListNV @3187 DATA
    __glewCompileShader @3188 DATA
    __glewCompileShaderARB @3189 DATA
    __glewCompileShaderIncludeARB @3190 DATA
    __glewCompressedMultiTexImage1DEXT @3191 DATA
    __glewCompressedMultiTexImage2DEXT @3192 DATA
    __glewCompressedMultiTexImage3DEXT @3193 DATA
    __glewCompressedMultiTexSubImage1DEXT @3194 DATA
    __glewCompressedMultiTexSubImage2DEXT @3195 DATA
    __glewCompressedMultiTexSubImage3DEXT @3196 DATA
    __glewCompressedTexImage1D @3197 DATA
    __glewCompressedTexImage1DARB @3198 DATA
    __glewCompressedTexImage2D @3199 DATA
    __glewCompressedTexImage2DARB @3200 DATA
    __glewCompressedTexImage3D @3201 DATA
    __glewCompressedTexImage3DARB @3202 DATA
    __glewCompressedTexImage3DNV @3203 DATA
    __glewCompressedTexImage3DOES @3204 DATA
    __glewCompressedTexSubImage1D @3205 DATA
    __glewCompressedTexSubImage1DARB @3206 DATA
    __glewCompressedTexSubImage2D @3207 DATA
    __glewCompressedTexSubImage2DARB @3208 DATA
    __glewCompressedTexSubImage3D @3209 DATA
    __glewCompressedTexSubImage3DARB @3210 DATA
    __glewCompressedTexSubImage3DNV @3211 DATA
    __glewCompressedTexSubImage3DOES @3212 DATA
    __glewCompressedTextureImage1DEXT @3213 DATA
    __glewCompressedTextureImage2DEXT @3214 DATA
    __glewCompressedTextureImage3DEXT @3215 DATA
    __glewCompressedTextureSubImage1D @3216 DATA
    __glewCompressedTextureSubImage1DEXT @3217 DATA
    __glewCompressedTextureSubImage2D @3218 DATA
    __glewCompressedTextureSubImage2DEXT @3219 DATA
    __glewCompressedTextureSubImage3D @3220 DATA
    __glewCompressedTextureSubImage3DEXT @3221 DATA
    __glewConservativeRasterParameterfNV @3222 DATA
    __glewConservativeRasterParameteriNV @3223 DATA
    __glewConvolutionFilter1D @3224 DATA
    __glewConvolutionFilter1DEXT @3225 DATA
    __glewConvolutionFilter2D @3226 DATA
    __glewConvolutionFilter2DEXT @3227 DATA
    __glewConvolutionParameterf @3228 DATA
    __glewConvolutionParameterfEXT @3229 DATA
    __glewConvolutionParameterfv @3230 DATA
    __glewConvolutionParameterfvEXT @3231 DATA
    __glewConvolutionParameteri @3232 DATA
    __glewConvolutionParameteriEXT @3233 DATA
    __glewConvolutionParameteriv @3234 DATA
    __glewConvolutionParameterivEXT @3235 DATA
    __glewCopyBufferSubData @3236 DATA
    __glewCopyBufferSubDataNV @3237 DATA
    __glewCopyColorSubTable @3238 DATA
    __glewCopyColorSubTableEXT @3239 DATA
    __glewCopyColorTable @3240 DATA
    __glewCopyColorTableSGI @3241 DATA
    __glewCopyConvolutionFilter1D @3242 DATA
    __glewCopyConvolutionFilter1DEXT @3243 DATA
    __glewCopyConvolutionFilter2D @3244 DATA
    __glewCopyConvolutionFilter2DEXT @3245 DATA
    __glewCopyImageSubData @3246 DATA
    __glewCopyImageSubDataEXT @3247 DATA
    __glewCopyImageSubDataNV @3248 DATA
    __glewCopyImageSubDataOES @3249 DATA
    __glewCopyMultiTexImage1DEXT @3250 DATA
    __glewCopyMultiTexImage2DEXT @3251 DATA
    __glewCopyMultiTexSubImage1DEXT @3252 DATA
    __glewCopyMultiTexSubImage2DEXT @3253 DATA
    __glewCopyMultiTexSubImage3DEXT @3254 DATA
    __glewCopyNamedBufferSubData @3255 DATA
    __glewCopyPathNV @3256 DATA
    __glewCopyTexImage1DEXT @3257 DATA
    __glewCopyTexImage2DEXT @3258 DATA
    __glewCopyTexSubImage1DEXT @3259 DATA
    __glewCopyTexSubImage2DEXT @3260 DATA
    __glewCopyTexSubImage3D @3261 DATA
    __glewCopyTexSubImage3DEXT @3262 DATA
    __glewCopyTexSubImage3DNV @3263 DATA
    __glewCopyTexSubImage3DOES @3264 DATA
    __glewCopyTextureImage1DEXT @3265 DATA
    __glewCopyTextureImage2DEXT @3266 DATA
    __glewCopyTextureLevelsAPPLE @3267 DATA
    __glewCopyTextureSubImage1D @3268 DATA
    __glewCopyTextureSubImage1DEXT @3269 DATA
    __glewCopyTextureSubImage2D @3270 DATA
    __glewCopyTextureSubImage2DEXT @3271 DATA
    __glewCopyTextureSubImage3D @3272 DATA
    __glewCopyTextureSubImage3DEXT @3273 DATA
    __glewCoverFillPathInstancedNV @3274 DATA
    __glewCoverFillPathNV @3275 DATA
    __glewCoverStrokePathInstancedNV @3276 DATA
    __glewCoverStrokePathNV @3277 DATA
    __glewCoverageModulationNV @3278 DATA
    __glewCoverageModulationTableNV @3279 DATA
    __glewCreateArraySetExt @3280 DATA
    __glewCreateBuffers @3281 DATA
    __glewCreateCommandListsNV @3282 DATA
    __glewCreateFramebuffers @3283 DATA
    __glewCreateMemoryObjectsEXT @3284 DATA
    __glewCreatePerfQueryINTEL @3285 DATA
    __glewCreateProgram @3286 DATA
    __glewCreateProgramObjectARB @3287 DATA
    __glewCreateProgramPipelines @3288 DATA
    __glewCreateQueries @3289 DATA
    __glewCreateRenderbuffers @3290 DATA
    __glewCreateSamplers @3291 DATA
    __glewCreateShader @3292 DATA
    __glewCreateShaderObjectARB @3293 DATA
    __glewCreateShaderProgramEXT @3294 DATA
    __glewCreateShaderProgramv @3295 DATA
    __glewCreateStatesNV @3296 DATA
    __glewCreateSyncFromCLeventARB @3297 DATA
    __glewCreateTextures @3298 DATA
    __glewCreateTransformFeedbacks @3299 DATA
    __glewCreateVertexArrays @3300 DATA
    __glewCullParameterdvEXT @3301 DATA
    __glewCullParameterfvEXT @3302 DATA
    __glewCurrentPaletteMatrixARB @3303 DATA
    __glewCurrentPaletteMatrixOES @3304 DATA
    __glewDataPipe @3305 DATA
    __glewDebugMessageCallback @3306 DATA
    __glewDebugMessageCallbackAMD @3307 DATA
    __glewDebugMessageCallbackARB @3308 DATA
    __glewDebugMessageControl @3309 DATA
    __glewDebugMessageControlARB @3310 DATA
    __glewDebugMessageEnableAMD @3311 DATA
    __glewDebugMessageInsert @3312 DATA
    __glewDebugMessageInsertAMD @3313 DATA
    __glewDebugMessageInsertARB @3314 DATA
    __glewDeformSGIX @3315 DATA
    __glewDeleteArraySetsEXT @3316 DATA
    __glewDeleteAsyncMarkersSGIX @3317 DATA
    __glewDeleteBufferRegion @3318 DATA
    __glewDeleteBuffers @3319 DATA
    __glewDeleteBuffersARB @3320 DATA
    __glewDeleteCommandListsNV @3321 DATA
    __glewDeleteFencesAPPLE @3322 DATA
    __glewDeleteFencesNV @3323 DATA
    __glewDeleteFragmentShaderATI @3324 DATA
    __glewDeleteFramebuffers @3325 DATA
    __glewDeleteFramebuffersEXT @3326 DATA
    __glewDeleteFramebuffersOES @3327 DATA
    __glewDeleteMPEGPredictorsSGIX @3328 DATA
    __glewDeleteMemoryObjectsEXT @3329 DATA
    __glewDeleteNamedStringARB @3330 DATA
    __glewDeleteNamesAMD @3331 DATA
    __glewDeleteObjectARB @3332 DATA
    __glewDeleteOcclusionQueriesNV @3333 DATA
    __glewDeletePathsNV @3334 DATA
    __glewDeletePerfMonitorsAMD @3335 DATA
    __glewDeletePerfQueryINTEL @3336 DATA
    __glewDeleteProgram @3337 DATA
    __glewDeleteProgramPipelines @3338 DATA
    __glewDeleteProgramsARB @3339 DATA
    __glewDeleteProgramsNV @3340 DATA
    __glewDeleteQueries @3341 DATA
    __glewDeleteQueriesANGLE @3342 DATA
    __glewDeleteQueriesARB @3343 DATA
    __glewDeleteQueriesEXT @3344 DATA
    __glewDeleteRenderbuffers @3345 DATA
    __glewDeleteRenderbuffersEXT @3346 DATA
    __glewDeleteRenderbuffersOES @3347 DATA
    __glewDeleteSamplers @3348 DATA
    __glewDeleteSemaphoresEXT @3349 DATA
    __glewDeleteShader @3350 DATA
    __glewDeleteStatesNV @3351 DATA
    __glewDeleteSync @3352 DATA
    __glewDeleteSyncAPPLE @3353 DATA
    __glewDeleteTexturesEXT @3354 DATA
    __glewDeleteTransformFeedbacks @3355 DATA
    __glewDeleteTransformFeedbacksNV @3356 DATA
    __glewDeleteVertexArrays @3357 DATA
    __glewDeleteVertexArraysAPPLE @3358 DATA
    __glewDeleteVertexArraysOES @3359 DATA
    __glewDeleteVertexArraysSGIX @3360 DATA
    __glewDeleteVertexShaderEXT @3361 DATA
    __glewDepthBoundsEXT @3362 DATA
    __glewDepthBoundsdNV @3363 DATA
    __glewDepthRangeArrayfvNV @3364 DATA
    __glewDepthRangeArrayv @3365 DATA
    __glewDepthRangeIndexed @3366 DATA
    __glewDepthRangeIndexedfNV @3367 DATA
    __glewDepthRangedNV @3368 DATA
    __glewDepthRangef @3369 DATA
    __glewDepthRangefOES @3370 DATA
    __glewDepthRangex @3371 DATA
    __glewDetachObjectARB @3372 DATA
    __glewDetachShader @3373 DATA
    __glewDetailTexFuncSGIS @3374 DATA
    __glewDisableClientStateIndexedEXT @3375 DATA
    __glewDisableClientStateiEXT @3376 DATA
    __glewDisableDriverControlQCOM @3377 DATA
    __glewDisableIndexedEXT @3378 DATA
    __glewDisableVariantClientStateEXT @3379 DATA
    __glewDisableVertexArrayAttrib @3380 DATA
    __glewDisableVertexArrayAttribEXT @3381 DATA
    __glewDisableVertexArrayEXT @3382 DATA
    __glewDisableVertexAttribAPPLE @3383 DATA
    __glewDisableVertexAttribArray @3384 DATA
    __glewDisableVertexAttribArrayARB @3385 DATA
    __glewDisablei @3386 DATA
    __glewDisableiEXT @3387 DATA
    __glewDisableiNV @3388 DATA
    __glewDisableiOES @3389 DATA
    __glewDiscardFramebufferEXT @3390 DATA
    __glewDispatchCompute @3391 DATA
    __glewDispatchComputeGroupSizeARB @3392 DATA
    __glewDispatchComputeIndirect @3393 DATA
    __glewDrawArraysEXT @3394 DATA
    __glewDrawArraysIndirect @3395 DATA
    __glewDrawArraysInstanced @3396 DATA
    __glewDrawArraysInstancedANGLE @3397 DATA
    __glewDrawArraysInstancedARB @3398 DATA
    __glewDrawArraysInstancedBaseInstance @3399 DATA
    __glewDrawArraysInstancedBaseInstanceEXT @3400 DATA
    __glewDrawArraysInstancedEXT @3401 DATA
    __glewDrawArraysInstancedNV @3402 DATA
    __glewDrawBufferRegion @3403 DATA
    __glewDrawBuffers @3404 DATA
    __glewDrawBuffersARB @3405 DATA
    __glewDrawBuffersATI @3406 DATA
    __glewDrawBuffersEXT @3407 DATA
    __glewDrawBuffersIndexedEXT @3408 DATA
    __glewDrawBuffersNV @3409 DATA
    __glewDrawCommandsAddressNV @3410 DATA
    __glewDrawCommandsNV @3411 DATA
    __glewDrawCommandsStatesAddressNV @3412 DATA
    __glewDrawCommandsStatesNV @3413 DATA
    __glewDrawElementArrayAPPLE @3414 DATA
    __glewDrawElementArrayATI @3415 DATA
    __glewDrawElementsBaseVertex @3416 DATA
    __glewDrawElementsBaseVertexEXT @3417 DATA
    __glewDrawElementsIndirect @3418 DATA
    __glewDrawElementsInstanced @3419 DATA
    __glewDrawElementsInstancedANGLE @3420 DATA
    __glewDrawElementsInstancedARB @3421 DATA
    __glewDrawElementsInstancedBaseInstance @3422 DATA
    __glewDrawElementsInstancedBaseInstanceEXT @3423 DATA
    __glewDrawElementsInstancedBaseVertex @3424 DATA
    __glewDrawElementsInstancedBaseVertexBaseInstance @3425 DATA
    __glewDrawElementsInstancedBaseVertexBaseInstanceEXT @3426 DATA
    __glewDrawElementsInstancedBaseVertexEXT @3427 DATA
    __glewDrawElementsInstancedEXT @3428 DATA
    __glewDrawElementsInstancedNV @3429 DATA
    __glewDrawMeshTasksIndirectNV @3430 DATA
    __glewDrawMeshTasksNV @3431 DATA
    __glewDrawRangeElementArrayAPPLE @3432 DATA
    __glewDrawRangeElementArrayATI @3433 DATA
    __glewDrawRangeElements @3434 DATA
    __glewDrawRangeElementsBaseVertex @3435 DATA
    __glewDrawRangeElementsBaseVertexEXT @3436 DATA
    __glewDrawRangeElementsEXT @3437 DATA
    __glewDrawTextureNV @3438 DATA
    __glewDrawTransformFeedback @3439 DATA
    __glewDrawTransformFeedbackEXT @3440 DATA
    __glewDrawTransformFeedbackInstanced @3441 DATA
    __glewDrawTransformFeedbackInstancedEXT @3442 DATA
    __glewDrawTransformFeedbackNV @3443 DATA
    __glewDrawTransformFeedbackStream @3444 DATA
    __glewDrawTransformFeedbackStreamInstanced @3445 DATA
    __glewDrawVkImageNV @3446 DATA
    __glewEGLImageTargetRenderbufferStorageOES @3447 DATA
    __glewEGLImageTargetTexStorageEXT @3448 DATA
    __glewEGLImageTargetTexture2DOES @3449 DATA
    __glewEGLImageTargetTextureStorageEXT @3450 DATA
    __glewEdgeFlagFormatNV @3451 DATA
    __glewEdgeFlagPointerEXT @3452 DATA
    __glewEdgeFlagPointerListIBM @3453 DATA
    __glewElementPointerAPPLE @3454 DATA
    __glewElementPointerATI @3455 DATA
    __glewEnableClientStateIndexedEXT @3456 DATA
    __glewEnableClientStateiEXT @3457 DATA
    __glewEnableDriverControlQCOM @3458 DATA
    __glewEnableIndexedEXT @3459 DATA
    __glewEnableVariantClientStateEXT @3460 DATA
    __glewEnableVertexArrayAttrib @3461 DATA
    __glewEnableVertexArrayAttribEXT @3462 DATA
    __glewEnableVertexArrayEXT @3463 DATA
    __glewEnableVertexAttribAPPLE @3464 DATA
    __glewEnableVertexAttribArray @3465 DATA
    __glewEnableVertexAttribArrayARB @3466 DATA
    __glewEnablei @3467 DATA
    __glewEnableiEXT @3468 DATA
    __glewEnableiNV @3469 DATA
    __glewEnableiOES @3470 DATA
    __glewEndConditionalRender @3471 DATA
    __glewEndConditionalRenderNV @3472 DATA
    __glewEndConditionalRenderNVX @3473 DATA
    __glewEndFragmentShaderATI @3474 DATA
    __glewEndOcclusionQueryNV @3475 DATA
    __glewEndPerfMonitorAMD @3476 DATA
    __glewEndPerfQueryINTEL @3477 DATA
    __glewEndQuery @3478 DATA
    __glewEndQueryANGLE @3479 DATA
    __glewEndQueryARB @3480 DATA
    __glewEndQueryEXT @3481 DATA
    __glewEndQueryIndexed @3482 DATA
    __glewEndSceneEXT @3483 DATA
    __glewEndTilingQCOM @3484 DATA
    __glewEndTransformFeedback @3485 DATA
    __glewEndTransformFeedbackEXT @3486 DATA
    __glewEndTransformFeedbackNV @3487 DATA
    __glewEndVertexShaderEXT @3488 DATA
    __glewEndVideoCaptureNV @3489 DATA
    __glewErrorStringREGAL @3490 DATA
    __glewEvalMapsNV @3491 DATA
    __glewExecuteProgramNV @3492 DATA
    __glewExtGetBufferPointervQCOM @3493 DATA
    __glewExtGetBuffersQCOM @3494 DATA
    __glewExtGetFramebuffersQCOM @3495 DATA
    __glewExtGetProgramBinarySourceQCOM @3496 DATA
    __glewExtGetProgramsQCOM @3497 DATA
    __glewExtGetRenderbuffersQCOM @3498 DATA
    __glewExtGetShadersQCOM @3499 DATA
    __glewExtGetTexLevelParameterivQCOM @3500 DATA
    __glewExtGetTexSubImageQCOM @3501 DATA
    __glewExtGetTexturesQCOM @3502 DATA
    __glewExtIsProgramBinaryQCOM @3503 DATA
    __glewExtTexObjectStateOverrideiQCOM @3504 DATA
    __glewExtractComponentEXT @3505 DATA
    __glewFenceSync @3506 DATA
    __glewFenceSyncAPPLE @3507 DATA
    __glewFinalCombinerInputNV @3508 DATA
    __glewFinishAsyncSGIX @3509 DATA
    __glewFinishFenceAPPLE @3510 DATA
    __glewFinishFenceNV @3511 DATA
    __glewFinishObjectAPPLE @3512 DATA
    __glewFinishTextureSUNX @3513 DATA
    __glewFlushMappedBufferRange @3514 DATA
    __glewFlushMappedBufferRangeAPPLE @3515 DATA
    __glewFlushMappedBufferRangeEXT @3516 DATA
    __glewFlushMappedNamedBufferRange @3517 DATA
    __glewFlushMappedNamedBufferRangeEXT @3518 DATA
    __glewFlushPixelDataRangeNV @3519 DATA
    __glewFlushRasterSGIX @3520 DATA
    __glewFlushVertexArrayRangeAPPLE @3521 DATA
    __glewFlushVertexArrayRangeNV @3522 DATA
    __glewFogCoordFormatNV @3523 DATA
    __glewFogCoordPointer @3524 DATA
    __glewFogCoordPointerEXT @3525 DATA
    __glewFogCoordPointerListIBM @3526 DATA
    __glewFogCoordd @3527 DATA
    __glewFogCoorddEXT @3528 DATA
    __glewFogCoorddv @3529 DATA
    __glewFogCoorddvEXT @3530 DATA
    __glewFogCoordf @3531 DATA
    __glewFogCoordfEXT @3532 DATA
    __glewFogCoordfv @3533 DATA
    __glewFogCoordfvEXT @3534 DATA
    __glewFogCoordhNV @3535 DATA
    __glewFogCoordhvNV @3536 DATA
    __glewFogFuncSGIS @3537 DATA
    __glewFogLayersSGIX @3538 DATA
    __glewFogx @3539 DATA
    __glewFogxv @3540 DATA
    __glewFragmentColorMaterialEXT @3541 DATA
    __glewFragmentColorMaterialSGIX @3542 DATA
    __glewFragmentCoverageColorNV @3543 DATA
    __glewFragmentLightModelfEXT @3544 DATA
    __glewFragmentLightModelfSGIX @3545 DATA
    __glewFragmentLightModelfvEXT @3546 DATA
    __glewFragmentLightModelfvSGIX @3547 DATA
    __glewFragmentLightModeliEXT @3548 DATA
    __glewFragmentLightModeliSGIX @3549 DATA
    __glewFragmentLightModelivEXT @3550 DATA
    __glewFragmentLightModelivSGIX @3551 DATA
    __glewFragmentLightfEXT @3552 DATA
    __glewFragmentLightfSGIX @3553 DATA
    __glewFragmentLightfvEXT @3554 DATA
    __glewFragmentLightfvSGIX @3555 DATA
    __glewFragmentLightiEXT @3556 DATA
    __glewFragmentLightiSGIX @3557 DATA
    __glewFragmentLightivEXT @3558 DATA
    __glewFragmentLightivSGIX @3559 DATA
    __glewFragmentMaterialfEXT @3560 DATA
    __glewFragmentMaterialfSGIX @3561 DATA
    __glewFragmentMaterialfvEXT @3562 DATA
    __glewFragmentMaterialfvSGIX @3563 DATA
    __glewFragmentMaterialiEXT @3564 DATA
    __glewFragmentMaterialiSGIX @3565 DATA
    __glewFragmentMaterialivEXT @3566 DATA
    __glewFragmentMaterialivSGIX @3567 DATA
    __glewFrameTerminatorGREMEDY @3568 DATA
    __glewFrameZoomSGIX @3569 DATA
    __glewFramebufferDrawBufferEXT @3570 DATA
    __glewFramebufferDrawBuffersEXT @3571 DATA
    __glewFramebufferFetchBarrierEXT @3572 DATA
    __glewFramebufferFetchBarrierQCOM @3573 DATA
    __glewFramebufferFoveationConfigQCOM @3574 DATA
    __glewFramebufferFoveationParametersQCOM @3575 DATA
    __glewFramebufferParameteri @3576 DATA
    __glewFramebufferParameteriMESA @3577 DATA
    __glewFramebufferPixelLocalStorageSizeEXT @3578 DATA
    __glewFramebufferReadBufferEXT @3579 DATA
    __glewFramebufferRenderbuffer @3580 DATA
    __glewFramebufferRenderbufferEXT @3581 DATA
    __glewFramebufferRenderbufferOES @3582 DATA
    __glewFramebufferSampleLocationsfvARB @3583 DATA
    __glewFramebufferSampleLocationsfvNV @3584 DATA
    __glewFramebufferSamplePositionsfvAMD @3585 DATA
    __glewFramebufferTexture @3586 DATA
    __glewFramebufferTexture1D @3587 DATA
    __glewFramebufferTexture1DEXT @3588 DATA
    __glewFramebufferTexture2D @3589 DATA
    __glewFramebufferTexture2DDownsampleIMG @3590 DATA
    __glewFramebufferTexture2DEXT @3591 DATA
    __glewFramebufferTexture2DMultisampleEXT @3592 DATA
    __glewFramebufferTexture2DMultisampleIMG @3593 DATA
    __glewFramebufferTexture2DOES @3594 DATA
    __glewFramebufferTexture3D @3595 DATA
    __glewFramebufferTexture3DEXT @3596 DATA
    __glewFramebufferTexture3DOES @3597 DATA
    __glewFramebufferTextureARB @3598 DATA
    __glewFramebufferTextureEXT @3599 DATA
    __glewFramebufferTextureFaceARB @3600 DATA
    __glewFramebufferTextureFaceEXT @3601 DATA
    __glewFramebufferTextureLayer @3602 DATA
    __glewFramebufferTextureLayerARB @3603 DATA
    __glewFramebufferTextureLayerDownsampleIMG @3604 DATA
    __glewFramebufferTextureLayerEXT @3605 DATA
    __glewFramebufferTextureLayerNV @3606 DATA
    __glewFramebufferTextureMultisampleMultiviewOVR @3607 DATA
    __glewFramebufferTextureMultiviewOVR @3608 DATA
    __glewFreeObjectBufferATI @3609 DATA
    __glewFrustumf @3610 DATA
    __glewFrustumfOES @3611 DATA
    __glewFrustumx @3612 DATA
    __glewGenAsyncMarkersSGIX @3613 DATA
    __glewGenBuffers @3614 DATA
    __glewGenBuffersARB @3615 DATA
    __glewGenFencesAPPLE @3616 DATA
    __glewGenFencesNV @3617 DATA
    __glewGenFragmentShadersATI @3618 DATA
    __glewGenFramebuffers @3619 DATA
    __glewGenFramebuffersEXT @3620 DATA
    __glewGenFramebuffersOES @3621 DATA
    __glewGenMPEGPredictorsSGIX @3622 DATA
    __glewGenNamesAMD @3623 DATA
    __glewGenOcclusionQueriesNV @3624 DATA
    __glewGenPathsNV @3625 DATA
    __glewGenPerfMonitorsAMD @3626 DATA
    __glewGenProgramPipelines @3627 DATA
    __glewGenProgramsARB @3628 DATA
    __glewGenProgramsNV @3629 DATA
    __glewGenQueries @3630 DATA
    __glewGenQueriesANGLE @3631 DATA
    __glewGenQueriesARB @3632 DATA
    __glewGenQueriesEXT @3633 DATA
    __glewGenRenderbuffers @3634 DATA
    __glewGenRenderbuffersEXT @3635 DATA
    __glewGenRenderbuffersOES @3636 DATA
    __glewGenSamplers @3637 DATA
    __glewGenSemaphoresEXT @3638 DATA
    __glewGenSymbolsEXT @3639 DATA
    __glewGenTexturesEXT @3640 DATA
    __glewGenTransformFeedbacks @3641 DATA
    __glewGenTransformFeedbacksNV @3642 DATA
    __glewGenVertexArrays @3643 DATA
    __glewGenVertexArraysAPPLE @3644 DATA
    __glewGenVertexArraysOES @3645 DATA
    __glewGenVertexArraysSGIX @3646 DATA
    __glewGenVertexShadersEXT @3647 DATA
    __glewGenerateMipmap @3648 DATA
    __glewGenerateMipmapEXT @3649 DATA
    __glewGenerateMipmapOES @3650 DATA
    __glewGenerateMultiTexMipmapEXT @3651 DATA
    __glewGenerateTextureMipmap @3652 DATA
    __glewGenerateTextureMipmapEXT @3653 DATA
    __glewGetActiveAtomicCounterBufferiv @3654 DATA
    __glewGetActiveAttrib @3655 DATA
    __glewGetActiveAttribARB @3656 DATA
    __glewGetActiveSubroutineName @3657 DATA
    __glewGetActiveSubroutineUniformName @3658 DATA
    __glewGetActiveSubroutineUniformiv @3659 DATA
    __glewGetActiveUniform @3660 DATA
    __glewGetActiveUniformARB @3661 DATA
    __glewGetActiveUniformBlockName @3662 DATA
    __glewGetActiveUniformBlockiv @3663 DATA
    __glewGetActiveUniformName @3664 DATA
    __glewGetActiveUniformsiv @3665 DATA
    __glewGetActiveVaryingNV @3666 DATA
    __glewGetArrayObjectfvATI @3667 DATA
    __glewGetArrayObjectivATI @3668 DATA
    __glewGetAttachedObjectsARB @3669 DATA
    __glewGetAttachedShaders @3670 DATA
    __glewGetAttribLocation @3671 DATA
    __glewGetAttribLocationARB @3672 DATA
    __glewGetBooleanIndexedvEXT @3673 DATA
    __glewGetBooleani_v @3674 DATA
    __glewGetBufferParameteri64v @3675 DATA
    __glewGetBufferParameteriv @3676 DATA
    __glewGetBufferParameterivARB @3677 DATA
    __glewGetBufferParameterui64vNV @3678 DATA
    __glewGetBufferPointerv @3679 DATA
    __glewGetBufferPointervARB @3680 DATA
    __glewGetBufferPointervOES @3681 DATA
    __glewGetBufferSubData @3682 DATA
    __glewGetBufferSubDataARB @3683 DATA
    __glewGetClipPlanef @3684 DATA
    __glewGetClipPlanefOES @3685 DATA
    __glewGetClipPlanex @3686 DATA
    __glewGetColorTable @3687 DATA
    __glewGetColorTableEXT @3688 DATA
    __glewGetColorTableParameterfv @3689 DATA
    __glewGetColorTableParameterfvEXT @3690 DATA
    __glewGetColorTableParameterfvSGI @3691 DATA
    __glewGetColorTableParameteriv @3692 DATA
    __glewGetColorTableParameterivEXT @3693 DATA
    __glewGetColorTableParameterivSGI @3694 DATA
    __glewGetColorTableSGI @3695 DATA
    __glewGetCombinerInputParameterfvNV @3696 DATA
    __glewGetCombinerInputParameterivNV @3697 DATA
    __glewGetCombinerOutputParameterfvNV @3698 DATA
    __glewGetCombinerOutputParameterivNV @3699 DATA
    __glewGetCombinerStageParameterfvNV @3700 DATA
    __glewGetCommandHeaderNV @3701 DATA
    __glewGetCompressedMultiTexImageEXT @3702 DATA
    __glewGetCompressedTexImage @3703 DATA
    __glewGetCompressedTexImageARB @3704 DATA
    __glewGetCompressedTextureImage @3705 DATA
    __glewGetCompressedTextureImageEXT @3706 DATA
    __glewGetCompressedTextureSubImage @3707 DATA
    __glewGetConvolutionFilter @3708 DATA
    __glewGetConvolutionFilterEXT @3709 DATA
    __glewGetConvolutionParameterfv @3710 DATA
    __glewGetConvolutionParameterfvEXT @3711 DATA
    __glewGetConvolutionParameteriv @3712 DATA
    __glewGetConvolutionParameterivEXT @3713 DATA
    __glewGetCoverageModulationTableNV @3714 DATA
    __glewGetDebugMessageLog @3715 DATA
    __glewGetDebugMessageLogAMD @3716 DATA
    __glewGetDebugMessageLogARB @3717 DATA
    __glewGetDetailTexFuncSGIS @3718 DATA
    __glewGetDoubleIndexedvEXT @3719 DATA
    __glewGetDoublei_v @3720 DATA
    __glewGetDoublei_vEXT @3721 DATA
    __glewGetDriverControlStringQCOM @3722 DATA
    __glewGetDriverControlsQCOM @3723 DATA
    __glewGetExtensionREGAL @3724 DATA
    __glewGetFenceivNV @3725 DATA
    __glewGetFinalCombinerInputParameterfvNV @3726 DATA
    __glewGetFinalCombinerInputParameterivNV @3727 DATA
    __glewGetFirstPerfQueryIdINTEL @3728 DATA
    __glewGetFixedv @3729 DATA
    __glewGetFloatIndexedvEXT @3730 DATA
    __glewGetFloati_v @3731 DATA
    __glewGetFloati_vEXT @3732 DATA
    __glewGetFloati_vNV @3733 DATA
    __glewGetFogFuncSGIS @3734 DATA
    __glewGetFogLayersSGIX @3735 DATA
    __glewGetFragDataIndex @3736 DATA
    __glewGetFragDataIndexEXT @3737 DATA
    __glewGetFragDataLocation @3738 DATA
    __glewGetFragDataLocationEXT @3739 DATA
    __glewGetFragmentLightfvEXT @3740 DATA
    __glewGetFragmentLightfvSGIX @3741 DATA
    __glewGetFragmentLightivEXT @3742 DATA
    __glewGetFragmentLightivSGIX @3743 DATA
    __glewGetFragmentMaterialfvEXT @3744 DATA
    __glewGetFragmentMaterialfvSGIX @3745 DATA
    __glewGetFragmentMaterialivEXT @3746 DATA
    __glewGetFragmentMaterialivSGIX @3747 DATA
    __glewGetFramebufferAttachmentParameteriv @3748 DATA
    __glewGetFramebufferAttachmentParameterivEXT @3749 DATA
    __glewGetFramebufferAttachmentParameterivOES @3750 DATA
    __glewGetFramebufferParameterfvAMD @3751 DATA
    __glewGetFramebufferParameteriv @3752 DATA
    __glewGetFramebufferParameterivEXT @3753 DATA
    __glewGetFramebufferParameterivMESA @3754 DATA
    __glewGetFramebufferPixelLocalStorageSizeEXT @3755 DATA
    __glewGetGraphicsResetStatus @3756 DATA
    __glewGetGraphicsResetStatusARB @3757 DATA
    __glewGetHandleARB @3758 DATA
    __glewGetHistogram @3759 DATA
    __glewGetHistogramEXT @3760 DATA
    __glewGetHistogramParameterfv @3761 DATA
    __glewGetHistogramParameterfvEXT @3762 DATA
    __glewGetHistogramParameteriv @3763 DATA
    __glewGetHistogramParameterivEXT @3764 DATA
    __glewGetImageHandleARB @3765 DATA
    __glewGetImageHandleNV @3766 DATA
    __glewGetImageTransformParameterfvHP @3767 DATA
    __glewGetImageTransformParameterivHP @3768 DATA
    __glewGetInfoLogARB @3769 DATA
    __glewGetInteger64i_v @3770 DATA
    __glewGetInteger64v @3771 DATA
    __glewGetInteger64vAPPLE @3772 DATA
    __glewGetInteger64vEXT @3773 DATA
    __glewGetIntegerIndexedvEXT @3774 DATA
    __glewGetIntegeri_v @3775 DATA
    __glewGetIntegeri_vEXT @3776 DATA
    __glewGetIntegerui64i_vNV @3777 DATA
    __glewGetIntegerui64vNV @3778 DATA
    __glewGetInternalformatSampleivNV @3779 DATA
    __glewGetInternalformati64v @3780 DATA
    __glewGetInternalformativ @3781 DATA
    __glewGetInvariantBooleanvEXT @3782 DATA
    __glewGetInvariantFloatvEXT @3783 DATA
    __glewGetInvariantIntegervEXT @3784 DATA
    __glewGetLightxv @3785 DATA
    __glewGetLocalConstantBooleanvEXT @3786 DATA
    __glewGetLocalConstantFloatvEXT @3787 DATA
    __glewGetLocalConstantIntegervEXT @3788 DATA
    __glewGetMPEGParameterfvSGIX @3789 DATA
    __glewGetMPEGParameterivSGIX @3790 DATA
    __glewGetMPEGPredictorSGIX @3791 DATA
    __glewGetMPEGQuantTableubv @3792 DATA
    __glewGetMapAttribParameterfvNV @3793 DATA
    __glewGetMapAttribParameterivNV @3794 DATA
    __glewGetMapControlPointsNV @3795 DATA
    __glewGetMapParameterfvNV @3796 DATA
    __glewGetMapParameterivNV @3797 DATA
    __glewGetMaterialxv @3798 DATA
    __glewGetMemoryObjectDetachedResourcesuivNV @3799 DATA
    __glewGetMemoryObjectParameterivEXT @3800 DATA
    __glewGetMinmax @3801 DATA
    __glewGetMinmaxEXT @3802 DATA
    __glewGetMinmaxParameterfv @3803 DATA
    __glewGetMinmaxParameterfvEXT @3804 DATA
    __glewGetMinmaxParameteriv @3805 DATA
    __glewGetMinmaxParameterivEXT @3806 DATA
    __glewGetMultiTexEnvfvEXT @3807 DATA
    __glewGetMultiTexEnvivEXT @3808 DATA
    __glewGetMultiTexGendvEXT @3809 DATA
    __glewGetMultiTexGenfvEXT @3810 DATA
    __glewGetMultiTexGenivEXT @3811 DATA
    __glewGetMultiTexImageEXT @3812 DATA
    __glewGetMultiTexLevelParameterfvEXT @3813 DATA
    __glewGetMultiTexLevelParameterivEXT @3814 DATA
    __glewGetMultiTexParameterIivEXT @3815 DATA
    __glewGetMultiTexParameterIuivEXT @3816 DATA
    __glewGetMultiTexParameterfvEXT @3817 DATA
    __glewGetMultiTexParameterivEXT @3818 DATA
    __glewGetMultisamplefv @3819 DATA
    __glewGetMultisamplefvNV @3820 DATA
    __glewGetNamedBufferParameteri64v @3821 DATA
    __glewGetNamedBufferParameteriv @3822 DATA
    __glewGetNamedBufferParameterivEXT @3823 DATA
    __glewGetNamedBufferParameterui64vNV @3824 DATA
    __glewGetNamedBufferPointerv @3825 DATA
    __glewGetNamedBufferPointervEXT @3826 DATA
    __glewGetNamedBufferSubData @3827 DATA
    __glewGetNamedBufferSubDataEXT @3828 DATA
    __glewGetNamedFramebufferAttachmentParameteriv @3829 DATA
    __glewGetNamedFramebufferAttachmentParameterivEXT @3830 DATA
    __glewGetNamedFramebufferParameterfvAMD @3831 DATA
    __glewGetNamedFramebufferParameteriv @3832 DATA
    __glewGetNamedFramebufferParameterivEXT @3833 DATA
    __glewGetNamedProgramLocalParameterIivEXT @3834 DATA
    __glewGetNamedProgramLocalParameterIuivEXT @3835 DATA
    __glewGetNamedProgramLocalParameterdvEXT @3836 DATA
    __glewGetNamedProgramLocalParameterfvEXT @3837 DATA
    __glewGetNamedProgramStringEXT @3838 DATA
    __glewGetNamedProgramivEXT @3839 DATA
    __glewGetNamedRenderbufferParameteriv @3840 DATA
    __glewGetNamedRenderbufferParameterivEXT @3841 DATA
    __glewGetNamedStringARB @3842 DATA
    __glewGetNamedStringivARB @3843 DATA
    __glewGetNextPerfQueryIdINTEL @3844 DATA
    __glewGetNonlinLightfvSGIX @3845 DATA
    __glewGetNonlinMaterialfvSGIX @3846 DATA
    __glewGetObjectBufferfvATI @3847 DATA
    __glewGetObjectBufferivATI @3848 DATA
    __glewGetObjectLabel @3849 DATA
    __glewGetObjectLabelEXT @3850 DATA
    __glewGetObjectParameterfvARB @3851 DATA
    __glewGetObjectParameterivAPPLE @3852 DATA
    __glewGetObjectParameterivARB @3853 DATA
    __glewGetObjectPtrLabel @3854 DATA
    __glewGetOcclusionQueryivNV @3855 DATA
    __glewGetOcclusionQueryuivNV @3856 DATA
    __glewGetPathColorGenfvNV @3857 DATA
    __glewGetPathColorGenivNV @3858 DATA
    __glewGetPathCommandsNV @3859 DATA
    __glewGetPathCoordsNV @3860 DATA
    __glewGetPathDashArrayNV @3861 DATA
    __glewGetPathLengthNV @3862 DATA
    __glewGetPathMetricRangeNV @3863 DATA
    __glewGetPathMetricsNV @3864 DATA
    __glewGetPathParameterfvNV @3865 DATA
    __glewGetPathParameterivNV @3866 DATA
    __glewGetPathSpacingNV @3867 DATA
    __glewGetPathTexGenfvNV @3868 DATA
    __glewGetPathTexGenivNV @3869 DATA
    __glewGetPerfCounterInfoINTEL @3870 DATA
    __glewGetPerfMonitorCounterDataAMD @3871 DATA
    __glewGetPerfMonitorCounterInfoAMD @3872 DATA
    __glewGetPerfMonitorCounterStringAMD @3873 DATA
    __glewGetPerfMonitorCountersAMD @3874 DATA
    __glewGetPerfMonitorGroupStringAMD @3875 DATA
    __glewGetPerfMonitorGroupsAMD @3876 DATA
    __glewGetPerfQueryDataINTEL @3877 DATA
    __glewGetPerfQueryIdByNameINTEL @3878 DATA
    __glewGetPerfQueryInfoINTEL @3879 DATA
    __glewGetPixelTransformParameterfvEXT @3880 DATA
    __glewGetPixelTransformParameterfvSGI @3881 DATA
    __glewGetPixelTransformParameterivEXT @3882 DATA
    __glewGetPixelTransformParameterivSGI @3883 DATA
    __glewGetPointerIndexedvEXT @3884 DATA
    __glewGetPointeri_vEXT @3885 DATA
    __glewGetProcAddressREGAL @3886 DATA
    __glewGetProgramBinary @3887 DATA
    __glewGetProgramBinaryOES @3888 DATA
    __glewGetProgramEnvParameterdvARB @3889 DATA
    __glewGetProgramEnvParameterfvARB @3890 DATA
    __glewGetProgramInfoLog @3891 DATA
    __glewGetProgramInterfaceiv @3892 DATA
    __glewGetProgramLocalParameterdvARB @3893 DATA
    __glewGetProgramLocalParameterfvARB @3894 DATA
    __glewGetProgramNamedParameterdvNV @3895 DATA
    __glewGetProgramNamedParameterfvNV @3896 DATA
    __glewGetProgramParameterdvNV @3897 DATA
    __glewGetProgramParameterfvNV @3898 DATA
    __glewGetProgramPipelineInfoLog @3899 DATA
    __glewGetProgramPipelineiv @3900 DATA
    __glewGetProgramResourceIndex @3901 DATA
    __glewGetProgramResourceLocation @3902 DATA
    __glewGetProgramResourceLocationIndex @3903 DATA
    __glewGetProgramResourceLocationIndexEXT @3904 DATA
    __glewGetProgramResourceName @3905 DATA
    __glewGetProgramResourcefvNV @3906 DATA
    __glewGetProgramResourceiv @3907 DATA
    __glewGetProgramStageiv @3908 DATA
    __glewGetProgramStringARB @3909 DATA
    __glewGetProgramStringNV @3910 DATA
    __glewGetProgramiv @3911 DATA
    __glewGetProgramivARB @3912 DATA
    __glewGetProgramivNV @3913 DATA
    __glewGetQueryBufferObjecti64v @3914 DATA
    __glewGetQueryBufferObjectiv @3915 DATA
    __glewGetQueryBufferObjectui64v @3916 DATA
    __glewGetQueryBufferObjectuiv @3917 DATA
    __glewGetQueryIndexediv @3918 DATA
    __glewGetQueryObjecti64v @3919 DATA
    __glewGetQueryObjecti64vANGLE @3920 DATA
    __glewGetQueryObjecti64vEXT @3921 DATA
    __glewGetQueryObjectiv @3922 DATA
    __glewGetQueryObjectivANGLE @3923 DATA
    __glewGetQueryObjectivARB @3924 DATA
    __glewGetQueryObjectivEXT @3925 DATA
    __glewGetQueryObjectui64v @3926 DATA
    __glewGetQueryObjectui64vANGLE @3927 DATA
    __glewGetQueryObjectui64vEXT @3928 DATA
    __glewGetQueryObjectuiv @3929 DATA
    __glewGetQueryObjectuivANGLE @3930 DATA
    __glewGetQueryObjectuivARB @3931 DATA
    __glewGetQueryObjectuivEXT @3932 DATA
    __glewGetQueryiv @3933 DATA
    __glewGetQueryivANGLE @3934 DATA
    __glewGetQueryivARB @3935 DATA
    __glewGetQueryivEXT @3936 DATA
    __glewGetRenderbufferParameteriv @3937 DATA
    __glewGetRenderbufferParameterivEXT @3938 DATA
    __glewGetRenderbufferParameterivOES @3939 DATA
    __glewGetSamplerParameterIiv @3940 DATA
    __glewGetSamplerParameterIivEXT @3941 DATA
    __glewGetSamplerParameterIivOES @3942 DATA
    __glewGetSamplerParameterIuiv @3943 DATA
    __glewGetSamplerParameterIuivEXT @3944 DATA
    __glewGetSamplerParameterIuivOES @3945 DATA
    __glewGetSamplerParameterfv @3946 DATA
    __glewGetSamplerParameteriv @3947 DATA
    __glewGetSemaphoreParameterui64vEXT @3948 DATA
    __glewGetSeparableFilter @3949 DATA
    __glewGetSeparableFilterEXT @3950 DATA
    __glewGetShaderInfoLog @3951 DATA
    __glewGetShaderPrecisionFormat @3952 DATA
    __glewGetShaderSource @3953 DATA
    __glewGetShaderSourceARB @3954 DATA
    __glewGetShaderiv @3955 DATA
    __glewGetShadingRateImagePaletteNV @3956 DATA
    __glewGetShadingRateSampleLocationivNV @3957 DATA
    __glewGetSharpenTexFuncSGIS @3958 DATA
    __glewGetStageIndexNV @3959 DATA
    __glewGetStringi @3960 DATA
    __glewGetSubroutineIndex @3961 DATA
    __glewGetSubroutineUniformLocation @3962 DATA
    __glewGetSynciv @3963 DATA
    __glewGetSyncivAPPLE @3964 DATA
    __glewGetTexBumpParameterfvATI @3965 DATA
    __glewGetTexBumpParameterivATI @3966 DATA
    __glewGetTexEnvxv @3967 DATA
    __glewGetTexFilterFuncSGIS @3968 DATA
    __glewGetTexGenfvOES @3969 DATA
    __glewGetTexGenivOES @3970 DATA
    __glewGetTexGenxvOES @3971 DATA
    __glewGetTexParameterIiv @3972 DATA
    __glewGetTexParameterIivEXT @3973 DATA
    __glewGetTexParameterIivOES @3974 DATA
    __glewGetTexParameterIuiv @3975 DATA
    __glewGetTexParameterIuivEXT @3976 DATA
    __glewGetTexParameterIuivOES @3977 DATA
    __glewGetTexParameterPointervAPPLE @3978 DATA
    __glewGetTexParameterxv @3979 DATA
    __glewGetTextureHandleARB @3980 DATA
    __glewGetTextureHandleIMG @3981 DATA
    __glewGetTextureHandleNV @3982 DATA
    __glewGetTextureImage @3983 DATA
    __glewGetTextureImageEXT @3984 DATA
    __glewGetTextureLevelParameterfv @3985 DATA
    __glewGetTextureLevelParameterfvEXT @3986 DATA
    __glewGetTextureLevelParameteriv @3987 DATA
    __glewGetTextureLevelParameterivEXT @3988 DATA
    __glewGetTextureParameterIiv @3989 DATA
    __glewGetTextureParameterIivEXT @3990 DATA
    __glewGetTextureParameterIuiv @3991 DATA
    __glewGetTextureParameterIuivEXT @3992 DATA
    __glewGetTextureParameterfv @3993 DATA
    __glewGetTextureParameterfvEXT @3994 DATA
    __glewGetTextureParameteriv @3995 DATA
    __glewGetTextureParameterivEXT @3996 DATA
    __glewGetTextureSamplerHandleARB @3997 DATA
    __glewGetTextureSamplerHandleIMG @3998 DATA
    __glewGetTextureSamplerHandleNV @3999 DATA
    __glewGetTextureSubImage @4000 DATA
    __glewGetTrackMatrixivNV @4001 DATA
    __glewGetTransformFeedbackVarying @4002 DATA
    __glewGetTransformFeedbackVaryingEXT @4003 DATA
    __glewGetTransformFeedbackVaryingNV @4004 DATA
    __glewGetTransformFeedbacki64_v @4005 DATA
    __glewGetTransformFeedbacki_v @4006 DATA
    __glewGetTransformFeedbackiv @4007 DATA
    __glewGetTranslatedShaderSourceANGLE @4008 DATA
    __glewGetUniformBlockIndex @4009 DATA
    __glewGetUniformBufferSizeEXT @4010 DATA
    __glewGetUniformIndices @4011 DATA
    __glewGetUniformLocation @4012 DATA
    __glewGetUniformLocationARB @4013 DATA
    __glewGetUniformOffsetEXT @4014 DATA
    __glewGetUniformSubroutineuiv @4015 DATA
    __glewGetUniformdv @4016 DATA
    __glewGetUniformfv @4017 DATA
    __glewGetUniformfvARB @4018 DATA
    __glewGetUniformi64vARB @4019 DATA
    __glewGetUniformi64vNV @4020 DATA
    __glewGetUniformiv @4021 DATA
    __glewGetUniformivARB @4022 DATA
    __glewGetUniformui64vARB @4023 DATA
    __glewGetUniformui64vNV @4024 DATA
    __glewGetUniformuiv @4025 DATA
    __glewGetUniformuivEXT @4026 DATA
    __glewGetUnsignedBytei_vEXT @4027 DATA
    __glewGetUnsignedBytevEXT @4028 DATA
    __glewGetVariantArrayObjectfvATI @4029 DATA
    __glewGetVariantArrayObjectivATI @4030 DATA
    __glewGetVariantBooleanvEXT @4031 DATA
    __glewGetVariantFloatvEXT @4032 DATA
    __glewGetVariantIntegervEXT @4033 DATA
    __glewGetVariantPointervEXT @4034 DATA
    __glewGetVaryingLocationNV @4035 DATA
    __glewGetVectorOperationSGIX @4036 DATA
    __glewGetVertexArrayIndexed64iv @4037 DATA
    __glewGetVertexArrayIndexediv @4038 DATA
    __glewGetVertexArrayIntegeri_vEXT @4039 DATA
    __glewGetVertexArrayIntegervEXT @4040 DATA
    __glewGetVertexArrayPointeri_vEXT @4041 DATA
    __glewGetVertexArrayPointervEXT @4042 DATA
    __glewGetVertexArrayiv @4043 DATA
    __glewGetVertexAttribArrayObjectfvATI @4044 DATA
    __glewGetVertexAttribArrayObjectivATI @4045 DATA
    __glewGetVertexAttribIiv @4046 DATA
    __glewGetVertexAttribIivEXT @4047 DATA
    __glewGetVertexAttribIuiv @4048 DATA
    __glewGetVertexAttribIuivEXT @4049 DATA
    __glewGetVertexAttribLdv @4050 DATA
    __glewGetVertexAttribLdvEXT @4051 DATA
    __glewGetVertexAttribLi64vNV @4052 DATA
    __glewGetVertexAttribLui64vARB @4053 DATA
    __glewGetVertexAttribLui64vNV @4054 DATA
    __glewGetVertexAttribPointerv @4055 DATA
    __glewGetVertexAttribPointervARB @4056 DATA
    __glewGetVertexAttribPointervNV @4057 DATA
    __glewGetVertexAttribdv @4058 DATA
    __glewGetVertexAttribdvARB @4059 DATA
    __glewGetVertexAttribdvNV @4060 DATA
    __glewGetVertexAttribfv @4061 DATA
    __glewGetVertexAttribfvARB @4062 DATA
    __glewGetVertexAttribfvNV @4063 DATA
    __glewGetVertexAttribiv @4064 DATA
    __glewGetVertexAttribivARB @4065 DATA
    __glewGetVertexAttribivNV @4066 DATA
    __glewGetVideoCaptureStreamdvNV @4067 DATA
    __glewGetVideoCaptureStreamfvNV @4068 DATA
    __glewGetVideoCaptureStreamivNV @4069 DATA
    __glewGetVideoCaptureivNV @4070 DATA
    __glewGetVideoi64vNV @4071 DATA
    __glewGetVideoivNV @4072 DATA
    __glewGetVideoui64vNV @4073 DATA
    __glewGetVideouivNV @4074 DATA
    __glewGetVkProcAddrNV @4075 DATA
    __glewGetnColorTableARB @4076 DATA
    __glewGetnCompressedTexImage @4077 DATA
    __glewGetnCompressedTexImageARB @4078 DATA
    __glewGetnConvolutionFilterARB @4079 DATA
    __glewGetnHistogramARB @4080 DATA
    __glewGetnMapdvARB @4081 DATA
    __glewGetnMapfvARB @4082 DATA
    __glewGetnMapivARB @4083 DATA
    __glewGetnMinmaxARB @4084 DATA
    __glewGetnPixelMapfvARB @4085 DATA
    __glewGetnPixelMapuivARB @4086 DATA
    __glewGetnPixelMapusvARB @4087 DATA
    __glewGetnPolygonStippleARB @4088 DATA
    __glewGetnSeparableFilterARB @4089 DATA
    __glewGetnTexImage @4090 DATA
    __glewGetnTexImageARB @4091 DATA
    __glewGetnUniformdv @4092 DATA
    __glewGetnUniformdvARB @4093 DATA
    __glewGetnUniformfv @4094 DATA
    __glewGetnUniformfvARB @4095 DATA
    __glewGetnUniformfvEXT @4096 DATA
    __glewGetnUniformi64vARB @4097 DATA
    __glewGetnUniformiv @4098 DATA
    __glewGetnUniformivARB @4099 DATA
    __glewGetnUniformivEXT @4100 DATA
    __glewGetnUniformui64vARB @4101 DATA
    __glewGetnUniformuiv @4102 DATA
    __glewGetnUniformuivARB @4103 DATA
    __glewGlobalAlphaFactorbSUN @4104 DATA
    __glewGlobalAlphaFactordSUN @4105 DATA
    __glewGlobalAlphaFactorfSUN @4106 DATA
    __glewGlobalAlphaFactoriSUN @4107 DATA
    __glewGlobalAlphaFactorsSUN @4108 DATA
    __glewGlobalAlphaFactorubSUN @4109 DATA
    __glewGlobalAlphaFactoruiSUN @4110 DATA
    __glewGlobalAlphaFactorusSUN @4111 DATA
    __glewHistogram @4112 DATA
    __glewHistogramEXT @4113 DATA
    __glewIglooInterfaceSGIX @4114 DATA
    __glewImageTransformParameterfHP @4115 DATA
    __glewImageTransformParameterfvHP @4116 DATA
    __glewImageTransformParameteriHP @4117 DATA
    __glewImageTransformParameterivHP @4118 DATA
    __glewImportMemoryFdEXT @4119 DATA
    __glewImportMemoryWin32HandleEXT @4120 DATA
    __glewImportMemoryWin32NameEXT @4121 DATA
    __glewImportSemaphoreFdEXT @4122 DATA
    __glewImportSemaphoreWin32HandleEXT @4123 DATA
    __glewImportSemaphoreWin32NameEXT @4124 DATA
    __glewImportSyncEXT @4125 DATA
    __glewIndexFormatNV @4126 DATA
    __glewIndexFuncEXT @4127 DATA
    __glewIndexMaterialEXT @4128 DATA
    __glewIndexPointerEXT @4129 DATA
    __glewIndexPointerListIBM @4130 DATA
    __glewInsertComponentEXT @4131 DATA
    __glewInsertEventMarkerEXT @4132 DATA
    __glewInterleavedTextureCoordSetsSGIS @4133 DATA
    __glewInterpolatePathsNV @4134 DATA
    __glewInvalidateBufferData @4135 DATA
    __glewInvalidateBufferSubData @4136 DATA
    __glewInvalidateFramebuffer @4137 DATA
    __glewInvalidateNamedFramebufferData @4138 DATA
    __glewInvalidateNamedFramebufferSubData @4139 DATA
    __glewInvalidateSubFramebuffer @4140 DATA
    __glewInvalidateTexImage @4141 DATA
    __glewInvalidateTexSubImage @4142 DATA
    __glewIsAsyncMarkerSGIX @4143 DATA
    __glewIsBuffer @4144 DATA
    __glewIsBufferARB @4145 DATA
    __glewIsBufferResidentNV @4146 DATA
    __glewIsCommandListNV @4147 DATA
    __glewIsEnabledIndexedEXT @4148 DATA
    __glewIsEnabledi @4149 DATA
    __glewIsEnablediEXT @4150 DATA
    __glewIsEnablediNV @4151 DATA
    __glewIsEnablediOES @4152 DATA
    __glewIsFenceAPPLE @4153 DATA
    __glewIsFenceNV @4154 DATA
    __glewIsFramebuffer @4155 DATA
    __glewIsFramebufferEXT @4156 DATA
    __glewIsFramebufferOES @4157 DATA
    __glewIsImageHandleResidentARB @4158 DATA
    __glewIsImageHandleResidentNV @4159 DATA
    __glewIsMPEGPredictorSGIX @4160 DATA
    __glewIsMemoryObjectEXT @4161 DATA
    __glewIsNameAMD @4162 DATA
    __glewIsNamedBufferResidentNV @4163 DATA
    __glewIsNamedStringARB @4164 DATA
    __glewIsObjectBufferATI @4165 DATA
    __glewIsOcclusionQueryNV @4166 DATA
    __glewIsPathNV @4167 DATA
    __glewIsPointInFillPathNV @4168 DATA
    __glewIsPointInStrokePathNV @4169 DATA
    __glewIsProgram @4170 DATA
    __glewIsProgramARB @4171 DATA
    __glewIsProgramNV @4172 DATA
    __glewIsProgramPipeline @4173 DATA
    __glewIsQuery @4174 DATA
    __glewIsQueryANGLE @4175 DATA
    __glewIsQueryARB @4176 DATA
    __glewIsQueryEXT @4177 DATA
    __glewIsRenderbuffer @4178 DATA
    __glewIsRenderbufferEXT @4179 DATA
    __glewIsRenderbufferOES @4180 DATA
    __glewIsSampler @4181 DATA
    __glewIsSemaphoreEXT @4182 DATA
    __glewIsShader @4183 DATA
    __glewIsStateNV @4184 DATA
    __glewIsSupportedREGAL @4185 DATA
    __glewIsSync @4186 DATA
    __glewIsSyncAPPLE @4187 DATA
    __glewIsTextureEXT @4188 DATA
    __glewIsTextureHandleResidentARB @4189 DATA
    __glewIsTextureHandleResidentNV @4190 DATA
    __glewIsTransformFeedback @4191 DATA
    __glewIsTransformFeedbackNV @4192 DATA
    __glewIsVariantEnabledEXT @4193 DATA
    __glewIsVertexArray @4194 DATA
    __glewIsVertexArrayAPPLE @4195 DATA
    __glewIsVertexArrayOES @4196 DATA
    __glewIsVertexArraySGIX @4197 DATA
    __glewIsVertexAttribEnabledAPPLE @4198 DATA
    __glewLGPUCopyImageSubDataNVX @4199 DATA
    __glewLGPUInterlockNVX @4200 DATA
    __glewLGPUNamedBufferSubDataNVX @4201 DATA
    __glewLabelObjectEXT @4202 DATA
    __glewLightEnviEXT @4203 DATA
    __glewLightModelx @4204 DATA
    __glewLightModelxv @4205 DATA
    __glewLightx @4206 DATA
    __glewLightxv @4207 DATA
    __glewLineWidthx @4208 DATA
    __glewLinkProgram @4209 DATA
    __glewLinkProgramARB @4210 DATA
    __glewListDrawCommandsStatesClientNV @4211 DATA
    __glewLoadIdentityDeformationMapSGIX @4212 DATA
    __glewLoadMatrixx @4213 DATA
    __glewLoadProgramNV @4214 DATA
    __glewLoadTransposeMatrixd @4215 DATA
    __glewLoadTransposeMatrixdARB @4216 DATA
    __glewLoadTransposeMatrixf @4217 DATA
    __glewLoadTransposeMatrixfARB @4218 DATA
    __glewLockArraysEXT @4219 DATA
    __glewLogMessageCallbackREGAL @4220 DATA
    __glewMPEGPredictorSGIX @4221 DATA
    __glewMPEGQuantTableubv @4222 DATA
    __glewMakeBufferNonResidentNV @4223 DATA
    __glewMakeBufferResidentNV @4224 DATA
    __glewMakeImageHandleNonResidentARB @4225 DATA
    __glewMakeImageHandleNonResidentNV @4226 DATA
    __glewMakeImageHandleResidentARB @4227 DATA
    __glewMakeImageHandleResidentNV @4228 DATA
    __glewMakeNamedBufferNonResidentNV @4229 DATA
    __glewMakeNamedBufferResidentNV @4230 DATA
    __glewMakeTextureHandleNonResidentARB @4231 DATA
    __glewMakeTextureHandleNonResidentNV @4232 DATA
    __glewMakeTextureHandleResidentARB @4233 DATA
    __glewMakeTextureHandleResidentNV @4234 DATA
    __glewMapBuffer @4235 DATA
    __glewMapBufferARB @4236 DATA
    __glewMapBufferOES @4237 DATA
    __glewMapBufferRange @4238 DATA
    __glewMapBufferRangeEXT @4239 DATA
    __glewMapControlPointsNV @4240 DATA
    __glewMapNamedBuffer @4241 DATA
    __glewMapNamedBufferEXT @4242 DATA
    __glewMapNamedBufferRange @4243 DATA
    __glewMapNamedBufferRangeEXT @4244 DATA
    __glewMapObjectBufferATI @4245 DATA
    __glewMapParameterfvNV @4246 DATA
    __glewMapParameterivNV @4247 DATA
    __glewMapTexture2DINTEL @4248 DATA
    __glewMapVertexAttrib1dAPPLE @4249 DATA
    __glewMapVertexAttrib1fAPPLE @4250 DATA
    __glewMapVertexAttrib2dAPPLE @4251 DATA
    __glewMapVertexAttrib2fAPPLE @4252 DATA
    __glewMaterialx @4253 DATA
    __glewMaterialxv @4254 DATA
    __glewMatrixFrustumEXT @4255 DATA
    __glewMatrixIndexPointerARB @4256 DATA
    __glewMatrixIndexPointerOES @4257 DATA
    __glewMatrixIndexubvARB @4258 DATA
    __glewMatrixIndexuivARB @4259 DATA
    __glewMatrixIndexusvARB @4260 DATA
    __glewMatrixLoad3x2fNV @4261 DATA
    __glewMatrixLoad3x3fNV @4262 DATA
    __glewMatrixLoadIdentityEXT @4263 DATA
    __glewMatrixLoadTranspose3x3fNV @4264 DATA
    __glewMatrixLoadTransposedEXT @4265 DATA
    __glewMatrixLoadTransposefEXT @4266 DATA
    __glewMatrixLoaddEXT @4267 DATA
    __glewMatrixLoadfEXT @4268 DATA
    __glewMatrixMult3x2fNV @4269 DATA
    __glewMatrixMult3x3fNV @4270 DATA
    __glewMatrixMultTranspose3x3fNV @4271 DATA
    __glewMatrixMultTransposedEXT @4272 DATA
    __glewMatrixMultTransposefEXT @4273 DATA
    __glewMatrixMultdEXT @4274 DATA
    __glewMatrixMultfEXT @4275 DATA
    __glewMatrixOrthoEXT @4276 DATA
    __glewMatrixPopEXT @4277 DATA
    __glewMatrixPushEXT @4278 DATA
    __glewMatrixRotatedEXT @4279 DATA
    __glewMatrixRotatefEXT @4280 DATA
    __glewMatrixScaledEXT @4281 DATA
    __glewMatrixScalefEXT @4282 DATA
    __glewMatrixTranslatedEXT @4283 DATA
    __glewMatrixTranslatefEXT @4284 DATA
    __glewMaxShaderCompilerThreadsARB @4285 DATA
    __glewMaxShaderCompilerThreadsKHR @4286 DATA
    __glewMemoryBarrier @4287 DATA
    __glewMemoryBarrierByRegion @4288 DATA
    __glewMemoryBarrierEXT @4289 DATA
    __glewMemoryObjectParameterivEXT @4290 DATA
    __glewMeshBreadthSGIX @4291 DATA
    __glewMeshStrideSGIX @4292 DATA
    __glewMinSampleShading @4293 DATA
    __glewMinSampleShadingARB @4294 DATA
    __glewMinSampleShadingOES @4295 DATA
    __glewMinmax @4296 DATA
    __glewMinmaxEXT @4297 DATA
    __glewMultMatrixx @4298 DATA
    __glewMultTransposeMatrixd @4299 DATA
    __glewMultTransposeMatrixdARB @4300 DATA
    __glewMultTransposeMatrixf @4301 DATA
    __glewMultTransposeMatrixfARB @4302 DATA
    __glewMultiDrawArrays @4303 DATA
    __glewMultiDrawArraysEXT @4304 DATA
    __glewMultiDrawArraysIndirect @4305 DATA
    __glewMultiDrawArraysIndirectAMD @4306 DATA
    __glewMultiDrawArraysIndirectBindlessCountNV @4307 DATA
    __glewMultiDrawArraysIndirectBindlessNV @4308 DATA
    __glewMultiDrawArraysIndirectCount @4309 DATA
    __glewMultiDrawArraysIndirectCountARB @4310 DATA
    __glewMultiDrawArraysIndirectEXT @4311 DATA
    __glewMultiDrawElementArrayAPPLE @4312 DATA
    __glewMultiDrawElements @4313 DATA
    __glewMultiDrawElementsBaseVertex @4314 DATA
    __glewMultiDrawElementsBaseVertexEXT @4315 DATA
    __glewMultiDrawElementsEXT @4316 DATA
    __glewMultiDrawElementsIndirect @4317 DATA
    __glewMultiDrawElementsIndirectAMD @4318 DATA
    __glewMultiDrawElementsIndirectBindlessCountNV @4319 DATA
    __glewMultiDrawElementsIndirectBindlessNV @4320 DATA
    __glewMultiDrawElementsIndirectCount @4321 DATA
    __glewMultiDrawElementsIndirectCountARB @4322 DATA
    __glewMultiDrawElementsIndirectEXT @4323 DATA
    __glewMultiDrawMeshTasksIndirectCountNV @4324 DATA
    __glewMultiDrawMeshTasksIndirectNV @4325 DATA
    __glewMultiDrawRangeElementArrayAPPLE @4326 DATA
    __glewMultiModeDrawArraysIBM @4327 DATA
    __glewMultiModeDrawElementsIBM @4328 DATA
    __glewMultiTexBufferEXT @4329 DATA
    __glewMultiTexCoord1d @4330 DATA
    __glewMultiTexCoord1dARB @4331 DATA
    __glewMultiTexCoord1dv @4332 DATA
    __glewMultiTexCoord1dvARB @4333 DATA
    __glewMultiTexCoord1f @4334 DATA
    __glewMultiTexCoord1fARB @4335 DATA
    __glewMultiTexCoord1fv @4336 DATA
    __glewMultiTexCoord1fvARB @4337 DATA
    __glewMultiTexCoord1hNV @4338 DATA
    __glewMultiTexCoord1hvNV @4339 DATA
    __glewMultiTexCoord1i @4340 DATA
    __glewMultiTexCoord1iARB @4341 DATA
    __glewMultiTexCoord1iv @4342 DATA
    __glewMultiTexCoord1ivARB @4343 DATA
    __glewMultiTexCoord1s @4344 DATA
    __glewMultiTexCoord1sARB @4345 DATA
    __glewMultiTexCoord1sv @4346 DATA
    __glewMultiTexCoord1svARB @4347 DATA
    __glewMultiTexCoord2d @4348 DATA
    __glewMultiTexCoord2dARB @4349 DATA
    __glewMultiTexCoord2dv @4350 DATA
    __glewMultiTexCoord2dvARB @4351 DATA
    __glewMultiTexCoord2f @4352 DATA
    __glewMultiTexCoord2fARB @4353 DATA
    __glewMultiTexCoord2fv @4354 DATA
    __glewMultiTexCoord2fvARB @4355 DATA
    __glewMultiTexCoord2hNV @4356 DATA
    __glewMultiTexCoord2hvNV @4357 DATA
    __glewMultiTexCoord2i @4358 DATA
    __glewMultiTexCoord2iARB @4359 DATA
    __glewMultiTexCoord2iv @4360 DATA
    __glewMultiTexCoord2ivARB @4361 DATA
    __glewMultiTexCoord2s @4362 DATA
    __glewMultiTexCoord2sARB @4363 DATA
    __glewMultiTexCoord2sv @4364 DATA
    __glewMultiTexCoord2svARB @4365 DATA
    __glewMultiTexCoord3d @4366 DATA
    __glewMultiTexCoord3dARB @4367 DATA
    __glewMultiTexCoord3dv @4368 DATA
    __glewMultiTexCoord3dvARB @4369 DATA
    __glewMultiTexCoord3f @4370 DATA
    __glewMultiTexCoord3fARB @4371 DATA
    __glewMultiTexCoord3fv @4372 DATA
    __glewMultiTexCoord3fvARB @4373 DATA
    __glewMultiTexCoord3hNV @4374 DATA
    __glewMultiTexCoord3hvNV @4375 DATA
    __glewMultiTexCoord3i @4376 DATA
    __glewMultiTexCoord3iARB @4377 DATA
    __glewMultiTexCoord3iv @4378 DATA
    __glewMultiTexCoord3ivARB @4379 DATA
    __glewMultiTexCoord3s @4380 DATA
    __glewMultiTexCoord3sARB @4381 DATA
    __glewMultiTexCoord3sv @4382 DATA
    __glewMultiTexCoord3svARB @4383 DATA
    __glewMultiTexCoord4d @4384 DATA
    __glewMultiTexCoord4dARB @4385 DATA
    __glewMultiTexCoord4dv @4386 DATA
    __glewMultiTexCoord4dvARB @4387 DATA
    __glewMultiTexCoord4f @4388 DATA
    __glewMultiTexCoord4fARB @4389 DATA
    __glewMultiTexCoord4fv @4390 DATA
    __glewMultiTexCoord4fvARB @4391 DATA
    __glewMultiTexCoord4hNV @4392 DATA
    __glewMultiTexCoord4hvNV @4393 DATA
    __glewMultiTexCoord4i @4394 DATA
    __glewMultiTexCoord4iARB @4395 DATA
    __glewMultiTexCoord4iv @4396 DATA
    __glewMultiTexCoord4ivARB @4397 DATA
    __glewMultiTexCoord4s @4398 DATA
    __glewMultiTexCoord4sARB @4399 DATA
    __glewMultiTexCoord4sv @4400 DATA
    __glewMultiTexCoord4svARB @4401 DATA
    __glewMultiTexCoord4x @4402 DATA
    __glewMultiTexCoordP1ui @4403 DATA
    __glewMultiTexCoordP1uiv @4404 DATA
    __glewMultiTexCoordP2ui @4405 DATA
    __glewMultiTexCoordP2uiv @4406 DATA
    __glewMultiTexCoordP3ui @4407 DATA
    __glewMultiTexCoordP3uiv @4408 DATA
    __glewMultiTexCoordP4ui @4409 DATA
    __glewMultiTexCoordP4uiv @4410 DATA
    __glewMultiTexCoordPointerEXT @4411 DATA
    __glewMultiTexEnvfEXT @4412 DATA
    __glewMultiTexEnvfvEXT @4413 DATA
    __glewMultiTexEnviEXT @4414 DATA
    __glewMultiTexEnvivEXT @4415 DATA
    __glewMultiTexGendEXT @4416 DATA
    __glewMultiTexGendvEXT @4417 DATA
    __glewMultiTexGenfEXT @4418 DATA
    __glewMultiTexGenfvEXT @4419 DATA
    __glewMultiTexGeniEXT @4420 DATA
    __glewMultiTexGenivEXT @4421 DATA
    __glewMultiTexImage1DEXT @4422 DATA
    __glewMultiTexImage2DEXT @4423 DATA
    __glewMultiTexImage3DEXT @4424 DATA
    __glewMultiTexParameterIivEXT @4425 DATA
    __glewMultiTexParameterIuivEXT @4426 DATA
    __glewMultiTexParameterfEXT @4427 DATA
    __glewMultiTexParameterfvEXT @4428 DATA
    __glewMultiTexParameteriEXT @4429 DATA
    __glewMultiTexParameterivEXT @4430 DATA
    __glewMultiTexRenderbufferEXT @4431 DATA
    __glewMultiTexSubImage1DEXT @4432 DATA
    __glewMultiTexSubImage2DEXT @4433 DATA
    __glewMultiTexSubImage3DEXT @4434 DATA
    __glewMulticastBarrierNV @4435 DATA
    __glewMulticastBlitFramebufferNV @4436 DATA
    __glewMulticastBufferSubDataNV @4437 DATA
    __glewMulticastCopyBufferSubDataNV @4438 DATA
    __glewMulticastCopyImageSubDataNV @4439 DATA
    __glewMulticastFramebufferSampleLocationsfvNV @4440 DATA
    __glewMulticastGetQueryObjecti64vNV @4441 DATA
    __glewMulticastGetQueryObjectivNV @4442 DATA
    __glewMulticastGetQueryObjectui64vNV @4443 DATA
    __glewMulticastGetQueryObjectuivNV @4444 DATA
    __glewMulticastScissorArrayvNVX @4445 DATA
    __glewMulticastViewportArrayvNVX @4446 DATA
    __glewMulticastViewportPositionWScaleNVX @4447 DATA
    __glewMulticastWaitSyncNV @4448 DATA
    __glewMultisampleSubRectPosSGIS @4449 DATA
    __glewNamedBufferAttachMemoryNV @4450 DATA
    __glewNamedBufferData @4451 DATA
    __glewNamedBufferDataEXT @4452 DATA
    __glewNamedBufferStorage @4453 DATA
    __glewNamedBufferStorageEXT @4454 DATA
    __glewNamedBufferStorageExternalEXT @4455 DATA
    __glewNamedBufferStorageMemEXT @4456 DATA
    __glewNamedBufferSubData @4457 DATA
    __glewNamedBufferSubDataEXT @4458 DATA
    __glewNamedCopyBufferSubDataEXT @4459 DATA
    __glewNamedFramebufferDrawBuffer @4460 DATA
    __glewNamedFramebufferDrawBuffers @4461 DATA
    __glewNamedFramebufferParameteri @4462 DATA
    __glewNamedFramebufferParameteriEXT @4463 DATA
    __glewNamedFramebufferReadBuffer @4464 DATA
    __glewNamedFramebufferRenderbuffer @4465 DATA
    __glewNamedFramebufferRenderbufferEXT @4466 DATA
    __glewNamedFramebufferSampleLocationsfvARB @4467 DATA
    __glewNamedFramebufferSampleLocationsfvNV @4468 DATA
    __glewNamedFramebufferSamplePositionsfvAMD @4469 DATA
    __glewNamedFramebufferTexture @4470 DATA
    __glewNamedFramebufferTexture1DEXT @4471 DATA
    __glewNamedFramebufferTexture2DEXT @4472 DATA
    __glewNamedFramebufferTexture3DEXT @4473 DATA
    __glewNamedFramebufferTextureEXT @4474 DATA
    __glewNamedFramebufferTextureFaceEXT @4475 DATA
    __glewNamedFramebufferTextureLayer @4476 DATA
    __glewNamedFramebufferTextureLayerEXT @4477 DATA
    __glewNamedFramebufferTextureMultiviewOVR @4478 DATA
    __glewNamedProgramLocalParameter4dEXT @4479 DATA
    __glewNamedProgramLocalParameter4dvEXT @4480 DATA
    __glewNamedProgramLocalParameter4fEXT @4481 DATA
    __glewNamedProgramLocalParameter4fvEXT @4482 DATA
    __glewNamedProgramLocalParameterI4iEXT @4483 DATA
    __glewNamedProgramLocalParameterI4ivEXT @4484 DATA
    __glewNamedProgramLocalParameterI4uiEXT @4485 DATA
    __glewNamedProgramLocalParameterI4uivEXT @4486 DATA
    __glewNamedProgramLocalParameters4fvEXT @4487 DATA
    __glewNamedProgramLocalParametersI4ivEXT @4488 DATA
    __glewNamedProgramLocalParametersI4uivEXT @4489 DATA
    __glewNamedProgramStringEXT @4490 DATA
    __glewNamedRenderbufferStorage @4491 DATA
    __glewNamedRenderbufferStorageEXT @4492 DATA
    __glewNamedRenderbufferStorageMultisample @4493 DATA
    __glewNamedRenderbufferStorageMultisampleAdvancedAMD @4494 DATA
    __glewNamedRenderbufferStorageMultisampleCoverageEXT @4495 DATA
    __glewNamedRenderbufferStorageMultisampleEXT @4496 DATA
    __glewNamedStringARB @4497 DATA
    __glewNewBufferRegion @4498 DATA
    __glewNewObjectBufferATI @4499 DATA
    __glewNonlinLightfvSGIX @4500 DATA
    __glewNonlinMaterialfvSGIX @4501 DATA
    __glewNormal3fVertex3fSUN @4502 DATA
    __glewNormal3fVertex3fvSUN @4503 DATA
    __glewNormal3hNV @4504 DATA
    __glewNormal3hvNV @4505 DATA
    __glewNormal3x @4506 DATA
    __glewNormalFormatNV @4507 DATA
    __glewNormalP3ui @4508 DATA
    __glewNormalP3uiv @4509 DATA
    __glewNormalPointerEXT @4510 DATA
    __glewNormalPointerListIBM @4511 DATA
    __glewNormalPointervINTEL @4512 DATA
    __glewNormalStream3bATI @4513 DATA
    __glewNormalStream3bvATI @4514 DATA
    __glewNormalStream3dATI @4515 DATA
    __glewNormalStream3dvATI @4516 DATA
    __glewNormalStream3fATI @4517 DATA
    __glewNormalStream3fvATI @4518 DATA
    __glewNormalStream3iATI @4519 DATA
    __glewNormalStream3ivATI @4520 DATA
    __glewNormalStream3sATI @4521 DATA
    __glewNormalStream3svATI @4522 DATA
    __glewObjectLabel @4523 DATA
    __glewObjectPtrLabel @4524 DATA
    __glewObjectPurgeableAPPLE @4525 DATA
    __glewObjectUnpurgeableAPPLE @4526 DATA
    __glewOrthof @4527 DATA
    __glewOrthofOES @4528 DATA
    __glewOrthox @4529 DATA
    __glewPNTrianglesfATI @4530 DATA
    __glewPNTrianglesiATI @4531 DATA
    __glewPassTexCoordATI @4532 DATA
    __glewPatchParameterfv @4533 DATA
    __glewPatchParameteri @4534 DATA
    __glewPatchParameteriEXT @4535 DATA
    __glewPathColorGenNV @4536 DATA
    __glewPathCommandsNV @4537 DATA
    __glewPathCoordsNV @4538 DATA
    __glewPathCoverDepthFuncNV @4539 DATA
    __glewPathDashArrayNV @4540 DATA
    __glewPathFogGenNV @4541 DATA
    __glewPathGlyphIndexArrayNV @4542 DATA
    __glewPathGlyphIndexRangeNV @4543 DATA
    __glewPathGlyphRangeNV @4544 DATA
    __glewPathGlyphsNV @4545 DATA
    __glewPathMemoryGlyphIndexArrayNV @4546 DATA
    __glewPathParameterfNV @4547 DATA
    __glewPathParameterfvNV @4548 DATA
    __glewPathParameteriNV @4549 DATA
    __glewPathParameterivNV @4550 DATA
    __glewPathStencilDepthOffsetNV @4551 DATA
    __glewPathStencilFuncNV @4552 DATA
    __glewPathStringNV @4553 DATA
    __glewPathSubCommandsNV @4554 DATA
    __glewPathSubCoordsNV @4555 DATA
    __glewPathTexGenNV @4556 DATA
    __glewPauseTransformFeedback @4557 DATA
    __glewPauseTransformFeedbackNV @4558 DATA
    __glewPixelDataRangeNV @4559 DATA
    __glewPixelTexGenSGIX @4560 DATA
    __glewPixelTransformParameterfEXT @4561 DATA
    __glewPixelTransformParameterfSGI @4562 DATA
    __glewPixelTransformParameterfvEXT @4563 DATA
    __glewPixelTransformParameterfvSGI @4564 DATA
    __glewPixelTransformParameteriEXT @4565 DATA
    __glewPixelTransformParameteriSGI @4566 DATA
    __glewPixelTransformParameterivEXT @4567 DATA
    __glewPixelTransformParameterivSGI @4568 DATA
    __glewPixelTransformSGI @4569 DATA
    __glewPointAlongPathNV @4570 DATA
    __glewPointParameterf @4571 DATA
    __glewPointParameterfARB @4572 DATA
    __glewPointParameterfEXT @4573 DATA
    __glewPointParameterfv @4574 DATA
    __glewPointParameterfvARB @4575 DATA
    __glewPointParameterfvEXT @4576 DATA
    __glewPointParameteri @4577 DATA
    __glewPointParameteriNV @4578 DATA
    __glewPointParameteriv @4579 DATA
    __glewPointParameterivNV @4580 DATA
    __glewPointParameterx @4581 DATA
    __glewPointParameterxv @4582 DATA
    __glewPointSizePointerOES @4583 DATA
    __glewPointSizex @4584 DATA
    __glewPollAsyncSGIX @4585 DATA
    __glewPolygonModeNV @4586 DATA
    __glewPolygonOffsetClamp @4587 DATA
    __glewPolygonOffsetClampEXT @4588 DATA
    __glewPolygonOffsetEXT @4589 DATA
    __glewPolygonOffsetx @4590 DATA
    __glewPopDebugGroup @4591 DATA
    __glewPopGroupMarkerEXT @4592 DATA
    __glewPresentFrameDualFillNV @4593 DATA
    __glewPresentFrameKeyedNV @4594 DATA
    __glewPrimitiveBoundingBoxARB @4595 DATA
    __glewPrimitiveBoundingBoxEXT @4596 DATA
    __glewPrimitiveRestartIndex @4597 DATA
    __glewPrimitiveRestartIndexNV @4598 DATA
    __glewPrimitiveRestartNV @4599 DATA
    __glewPrioritizeTexturesEXT @4600 DATA
    __glewPrioritizeVertexArraysSGIX @4601 DATA
    __glewProgramBinary @4602 DATA
    __glewProgramBinaryOES @4603 DATA
    __glewProgramBufferParametersIivNV @4604 DATA
    __glewProgramBufferParametersIuivNV @4605 DATA
    __glewProgramBufferParametersfvNV @4606 DATA
    __glewProgramEnvParameter4dARB @4607 DATA
    __glewProgramEnvParameter4dvARB @4608 DATA
    __glewProgramEnvParameter4fARB @4609 DATA
    __glewProgramEnvParameter4fvARB @4610 DATA
    __glewProgramEnvParameterI4iNV @4611 DATA
    __glewProgramEnvParameterI4ivNV @4612 DATA
    __glewProgramEnvParameterI4uiNV @4613 DATA
    __glewProgramEnvParameterI4uivNV @4614 DATA
    __glewProgramEnvParameters4fvEXT @4615 DATA
    __glewProgramEnvParametersI4ivNV @4616 DATA
    __glewProgramEnvParametersI4uivNV @4617 DATA
    __glewProgramLocalParameter4dARB @4618 DATA
    __glewProgramLocalParameter4dvARB @4619 DATA
    __glewProgramLocalParameter4fARB @4620 DATA
    __glewProgramLocalParameter4fvARB @4621 DATA
    __glewProgramLocalParameterI4iNV @4622 DATA
    __glewProgramLocalParameterI4ivNV @4623 DATA
    __glewProgramLocalParameterI4uiNV @4624 DATA
    __glewProgramLocalParameterI4uivNV @4625 DATA
    __glewProgramLocalParameters4fvEXT @4626 DATA
    __glewProgramLocalParametersI4ivNV @4627 DATA
    __glewProgramLocalParametersI4uivNV @4628 DATA
    __glewProgramNamedParameter4dNV @4629 DATA
    __glewProgramNamedParameter4dvNV @4630 DATA
    __glewProgramNamedParameter4fNV @4631 DATA
    __glewProgramNamedParameter4fvNV @4632 DATA
    __glewProgramParameter4dNV @4633 DATA
    __glewProgramParameter4dvNV @4634 DATA
    __glewProgramParameter4fNV @4635 DATA
    __glewProgramParameter4fvNV @4636 DATA
    __glewProgramParameteri @4637 DATA
    __glewProgramParameteriARB @4638 DATA
    __glewProgramParameteriEXT @4639 DATA
    __glewProgramParameters4dvNV @4640 DATA
    __glewProgramParameters4fvNV @4641 DATA
    __glewProgramPathFragmentInputGenNV @4642 DATA
    __glewProgramStringARB @4643 DATA
    __glewProgramUniform1d @4644 DATA
    __glewProgramUniform1dv @4645 DATA
    __glewProgramUniform1f @4646 DATA
    __glewProgramUniform1fEXT @4647 DATA
    __glewProgramUniform1fv @4648 DATA
    __glewProgramUniform1fvEXT @4649 DATA
    __glewProgramUniform1i @4650 DATA
    __glewProgramUniform1i64ARB @4651 DATA
    __glewProgramUniform1i64NV @4652 DATA
    __glewProgramUniform1i64vARB @4653 DATA
    __glewProgramUniform1i64vNV @4654 DATA
    __glewProgramUniform1iEXT @4655 DATA
    __glewProgramUniform1iv @4656 DATA
    __glewProgramUniform1ivEXT @4657 DATA
    __glewProgramUniform1ui @4658 DATA
    __glewProgramUniform1ui64ARB @4659 DATA
    __glewProgramUniform1ui64NV @4660 DATA
    __glewProgramUniform1ui64vARB @4661 DATA
    __glewProgramUniform1ui64vNV @4662 DATA
    __glewProgramUniform1uiEXT @4663 DATA
    __glewProgramUniform1uiv @4664 DATA
    __glewProgramUniform1uivEXT @4665 DATA
    __glewProgramUniform2d @4666 DATA
    __glewProgramUniform2dv @4667 DATA
    __glewProgramUniform2f @4668 DATA
    __glewProgramUniform2fEXT @4669 DATA
    __glewProgramUniform2fv @4670 DATA
    __glewProgramUniform2fvEXT @4671 DATA
    __glewProgramUniform2i @4672 DATA
    __glewProgramUniform2i64ARB @4673 DATA
    __glewProgramUniform2i64NV @4674 DATA
    __glewProgramUniform2i64vARB @4675 DATA
    __glewProgramUniform2i64vNV @4676 DATA
    __glewProgramUniform2iEXT @4677 DATA
    __glewProgramUniform2iv @4678 DATA
    __glewProgramUniform2ivEXT @4679 DATA
    __glewProgramUniform2ui @4680 DATA
    __glewProgramUniform2ui64ARB @4681 DATA
    __glewProgramUniform2ui64NV @4682 DATA
    __glewProgramUniform2ui64vARB @4683 DATA
    __glewProgramUniform2ui64vNV @4684 DATA
    __glewProgramUniform2uiEXT @4685 DATA
    __glewProgramUniform2uiv @4686 DATA
    __glewProgramUniform2uivEXT @4687 DATA
    __glewProgramUniform3d @4688 DATA
    __glewProgramUniform3dv @4689 DATA
    __glewProgramUniform3f @4690 DATA
    __glewProgramUniform3fEXT @4691 DATA
    __glewProgramUniform3fv @4692 DATA
    __glewProgramUniform3fvEXT @4693 DATA
    __glewProgramUniform3i @4694 DATA
    __glewProgramUniform3i64ARB @4695 DATA
    __glewProgramUniform3i64NV @4696 DATA
    __glewProgramUniform3i64vARB @4697 DATA
    __glewProgramUniform3i64vNV @4698 DATA
    __glewProgramUniform3iEXT @4699 DATA
    __glewProgramUniform3iv @4700 DATA
    __glewProgramUniform3ivEXT @4701 DATA
    __glewProgramUniform3ui @4702 DATA
    __glewProgramUniform3ui64ARB @4703 DATA
    __glewProgramUniform3ui64NV @4704 DATA
    __glewProgramUniform3ui64vARB @4705 DATA
    __glewProgramUniform3ui64vNV @4706 DATA
    __glewProgramUniform3uiEXT @4707 DATA
    __glewProgramUniform3uiv @4708 DATA
    __glewProgramUniform3uivEXT @4709 DATA
    __glewProgramUniform4d @4710 DATA
    __glewProgramUniform4dv @4711 DATA
    __glewProgramUniform4f @4712 DATA
    __glewProgramUniform4fEXT @4713 DATA
    __glewProgramUniform4fv @4714 DATA
    __glewProgramUniform4fvEXT @4715 DATA
    __glewProgramUniform4i @4716 DATA
    __glewProgramUniform4i64ARB @4717 DATA
    __glewProgramUniform4i64NV @4718 DATA
    __glewProgramUniform4i64vARB @4719 DATA
    __glewProgramUniform4i64vNV @4720 DATA
    __glewProgramUniform4iEXT @4721 DATA
    __glewProgramUniform4iv @4722 DATA
    __glewProgramUniform4ivEXT @4723 DATA
    __glewProgramUniform4ui @4724 DATA
    __glewProgramUniform4ui64ARB @4725 DATA
    __glewProgramUniform4ui64NV @4726 DATA
    __glewProgramUniform4ui64vARB @4727 DATA
    __glewProgramUniform4ui64vNV @4728 DATA
    __glewProgramUniform4uiEXT @4729 DATA
    __glewProgramUniform4uiv @4730 DATA
    __glewProgramUniform4uivEXT @4731 DATA
    __glewProgramUniformHandleui64ARB @4732 DATA
    __glewProgramUniformHandleui64IMG @4733 DATA
    __glewProgramUniformHandleui64NV @4734 DATA
    __glewProgramUniformHandleui64vARB @4735 DATA
    __glewProgramUniformHandleui64vIMG @4736 DATA
    __glewProgramUniformHandleui64vNV @4737 DATA
    __glewProgramUniformMatrix2dv @4738 DATA
    __glewProgramUniformMatrix2fv @4739 DATA
    __glewProgramUniformMatrix2fvEXT @4740 DATA
    __glewProgramUniformMatrix2x3dv @4741 DATA
    __glewProgramUniformMatrix2x3fv @4742 DATA
    __glewProgramUniformMatrix2x3fvEXT @4743 DATA
    __glewProgramUniformMatrix2x4dv @4744 DATA
    __glewProgramUniformMatrix2x4fv @4745 DATA
    __glewProgramUniformMatrix2x4fvEXT @4746 DATA
    __glewProgramUniformMatrix3dv @4747 DATA
    __glewProgramUniformMatrix3fv @4748 DATA
    __glewProgramUniformMatrix3fvEXT @4749 DATA
    __glewProgramUniformMatrix3x2dv @4750 DATA
    __glewProgramUniformMatrix3x2fv @4751 DATA
    __glewProgramUniformMatrix3x2fvEXT @4752 DATA
    __glewProgramUniformMatrix3x4dv @4753 DATA
    __glewProgramUniformMatrix3x4fv @4754 DATA
    __glewProgramUniformMatrix3x4fvEXT @4755 DATA
    __glewProgramUniformMatrix4dv @4756 DATA
    __glewProgramUniformMatrix4fv @4757 DATA
    __glewProgramUniformMatrix4fvEXT @4758 DATA
    __glewProgramUniformMatrix4x2dv @4759 DATA
    __glewProgramUniformMatrix4x2fv @4760 DATA
    __glewProgramUniformMatrix4x2fvEXT @4761 DATA
    __glewProgramUniformMatrix4x3dv @4762 DATA
    __glewProgramUniformMatrix4x3fv @4763 DATA
    __glewProgramUniformMatrix4x3fvEXT @4764 DATA
    __glewProgramUniformui64NV @4765 DATA
    __glewProgramUniformui64vNV @4766 DATA
    __glewProgramVertexLimitNV @4767 DATA
    __glewProvokingVertex @4768 DATA
    __glewProvokingVertexEXT @4769 DATA
    __glewPushClientAttribDefaultEXT @4770 DATA
    __glewPushDebugGroup @4771 DATA
    __glewPushGroupMarkerEXT @4772 DATA
    __glewQueryCounter @4773 DATA
    __glewQueryCounterANGLE @4774 DATA
    __glewQueryCounterEXT @4775 DATA
    __glewQueryObjectParameteruiAMD @4776 DATA
    __glewRasterSamplesEXT @4777 DATA
    __glewReadBufferIndexedEXT @4778 DATA
    __glewReadBufferNV @4779 DATA
    __glewReadBufferRegion @4780 DATA
    __glewReadVideoPixelsSUN @4781 DATA
    __glewReadnPixels @4782 DATA
    __glewReadnPixelsARB @4783 DATA
    __glewReadnPixelsEXT @4784 DATA
    __glewReferencePlaneSGIX @4785 DATA
    __glewReleaseKeyedMutexWin32EXT @4786 DATA
    __glewReleaseShaderCompiler @4787 DATA
    __glewRenderGpuMaskNV @4788 DATA
    __glewRenderbufferStorage @4789 DATA
    __glewRenderbufferStorageEXT @4790 DATA
    __glewRenderbufferStorageMultisample @4791 DATA
    __glewRenderbufferStorageMultisampleANGLE @4792 DATA
    __glewRenderbufferStorageMultisampleAPPLE @4793 DATA
    __glewRenderbufferStorageMultisampleAdvancedAMD @4794 DATA
    __glewRenderbufferStorageMultisampleCoverageNV @4795 DATA
    __glewRenderbufferStorageMultisampleEXT @4796 DATA
    __glewRenderbufferStorageMultisampleIMG @4797 DATA
    __glewRenderbufferStorageMultisampleNV @4798 DATA
    __glewRenderbufferStorageOES @4799 DATA
    __glewReplacementCodePointerSUN @4800 DATA
    __glewReplacementCodeubSUN @4801 DATA
    __glewReplacementCodeubvSUN @4802 DATA
    __glewReplacementCodeuiColor3fVertex3fSUN @4803 DATA
    __glewReplacementCodeuiColor3fVertex3fvSUN @4804 DATA
    __glewReplacementCodeuiColor4fNormal3fVertex3fSUN @4805 DATA
    __glewReplacementCodeuiColor4fNormal3fVertex3fvSUN @4806 DATA
    __glewReplacementCodeuiColor4ubVertex3fSUN @4807 DATA
    __glewReplacementCodeuiColor4ubVertex3fvSUN @4808 DATA
    __glewReplacementCodeuiNormal3fVertex3fSUN @4809 DATA
    __glewReplacementCodeuiNormal3fVertex3fvSUN @4810 DATA
    __glewReplacementCodeuiSUN @4811 DATA
    __glewReplacementCodeuiTexCoord2fColor4fNormal3fVertex3fSUN @4812 DATA
    __glewReplacementCodeuiTexCoord2fColor4fNormal3fVertex3fvSUN @4813 DATA
    __glewReplacementCodeuiTexCoord2fNormal3fVertex3fSUN @4814 DATA
    __glewReplacementCodeuiTexCoord2fNormal3fVertex3fvSUN @4815 DATA
    __glewReplacementCodeuiTexCoord2fVertex3fSUN @4816 DATA
    __glewReplacementCodeuiTexCoord2fVertex3fvSUN @4817 DATA
    __glewReplacementCodeuiVertex3fSUN @4818 DATA
    __glewReplacementCodeuiVertex3fvSUN @4819 DATA
    __glewReplacementCodeuivSUN @4820 DATA
    __glewReplacementCodeusSUN @4821 DATA
    __glewReplacementCodeusvSUN @4822 DATA
    __glewRequestResidentProgramsNV @4823 DATA
    __glewResetHistogram @4824 DATA
    __glewResetHistogramEXT @4825 DATA
    __glewResetMemoryObjectParameterNV @4826 DATA
    __glewResetMinmax @4827 DATA
    __glewResetMinmaxEXT @4828 DATA
    __glewResizeBuffersMESA @4829 DATA
    __glewResolveDepthValuesNV @4830 DATA
    __glewResolveMultisampleFramebufferAPPLE @4831 DATA
    __glewResumeTransformFeedback @4832 DATA
    __glewResumeTransformFeedbackNV @4833 DATA
    __glewRotatex @4834 DATA
    __glewSampleCoverage @4835 DATA
    __glewSampleCoverageARB @4836 DATA
    __glewSampleCoveragex @4837 DATA
    __glewSampleMapATI @4838 DATA
    __glewSampleMaskEXT @4839 DATA
    __glewSampleMaskIndexedNV @4840 DATA
    __glewSampleMaskSGIS @4841 DATA
    __glewSampleMaski @4842 DATA
    __glewSamplePatternEXT @4843 DATA
    __glewSamplePatternSGIS @4844 DATA
    __glewSamplerParameterIiv @4845 DATA
    __glewSamplerParameterIivEXT @4846 DATA
    __glewSamplerParameterIivOES @4847 DATA
    __glewSamplerParameterIuiv @4848 DATA
    __glewSamplerParameterIuivEXT @4849 DATA
    __glewSamplerParameterIuivOES @4850 DATA
    __glewSamplerParameterf @4851 DATA
    __glewSamplerParameterfv @4852 DATA
    __glewSamplerParameteri @4853 DATA
    __glewSamplerParameteriv @4854 DATA
    __glewScalex @4855 DATA
    __glewScissorArrayv @4856 DATA
    __glewScissorArrayvNV @4857 DATA
    __glewScissorExclusiveArrayvNV @4858 DATA
    __glewScissorExclusiveNV @4859 DATA
    __glewScissorIndexed @4860 DATA
    __glewScissorIndexedNV @4861 DATA
    __glewScissorIndexedv @4862 DATA
    __glewScissorIndexedvNV @4863 DATA
    __glewSecondaryColor3b @4864 DATA
    __glewSecondaryColor3bEXT @4865 DATA
    __glewSecondaryColor3bv @4866 DATA
    __glewSecondaryColor3bvEXT @4867 DATA
    __glewSecondaryColor3d @4868 DATA
    __glewSecondaryColor3dEXT @4869 DATA
    __glewSecondaryColor3dv @4870 DATA
    __glewSecondaryColor3dvEXT @4871 DATA
    __glewSecondaryColor3f @4872 DATA
    __glewSecondaryColor3fEXT @4873 DATA
    __glewSecondaryColor3fv @4874 DATA
    __glewSecondaryColor3fvEXT @4875 DATA
    __glewSecondaryColor3hNV @4876 DATA
    __glewSecondaryColor3hvNV @4877 DATA
    __glewSecondaryColor3i @4878 DATA
    __glewSecondaryColor3iEXT @4879 DATA
    __glewSecondaryColor3iv @4880 DATA
    __glewSecondaryColor3ivEXT @4881 DATA
    __glewSecondaryColor3s @4882 DATA
    __glewSecondaryColor3sEXT @4883 DATA
    __glewSecondaryColor3sv @4884 DATA
    __glewSecondaryColor3svEXT @4885 DATA
    __glewSecondaryColor3ub @4886 DATA
    __glewSecondaryColor3ubEXT @4887 DATA
    __glewSecondaryColor3ubv @4888 DATA
    __glewSecondaryColor3ubvEXT @4889 DATA
    __glewSecondaryColor3ui @4890 DATA
    __glewSecondaryColor3uiEXT @4891 DATA
    __glewSecondaryColor3uiv @4892 DATA
    __glewSecondaryColor3uivEXT @4893 DATA
    __glewSecondaryColor3us @4894 DATA
    __glewSecondaryColor3usEXT @4895 DATA
    __glewSecondaryColor3usv @4896 DATA
    __glewSecondaryColor3usvEXT @4897 DATA
    __glewSecondaryColorFormatNV @4898 DATA
    __glewSecondaryColorP3ui @4899 DATA
    __glewSecondaryColorP3uiv @4900 DATA
    __glewSecondaryColorPointer @4901 DATA
    __glewSecondaryColorPointerEXT @4902 DATA
    __glewSecondaryColorPointerListIBM @4903 DATA
    __glewSelectPerfMonitorCountersAMD @4904 DATA
    __glewSelectTextureCoordSetSGIS @4905 DATA
    __glewSelectTextureSGIS @4906 DATA
    __glewSelectTextureTransformSGIS @4907 DATA
    __glewSemaphoreParameterui64vEXT @4908 DATA
    __glewSeparableFilter2D @4909 DATA
    __glewSeparableFilter2DEXT @4910 DATA
    __glewSetFenceAPPLE @4911 DATA
    __glewSetFenceNV @4912 DATA
    __glewSetFragmentShaderConstantATI @4913 DATA
    __glewSetInvariantEXT @4914 DATA
    __glewSetLocalConstantEXT @4915 DATA
    __glewSetMultisamplefvAMD @4916 DATA
    __glewShaderBinary @4917 DATA
    __glewShaderOp1EXT @4918 DATA
    __glewShaderOp2EXT @4919 DATA
    __glewShaderOp3EXT @4920 DATA
    __glewShaderSource @4921 DATA
    __glewShaderSourceARB @4922 DATA
    __glewShaderStorageBlockBinding @4923 DATA
    __glewShadingRateImageBarrierNV @4924 DATA
    __glewShadingRateImagePaletteNV @4925 DATA
    __glewShadingRateSampleOrderCustomNV @4926 DATA
    __glewSharpenTexFuncSGIS @4927 DATA
    __glewSignalSemaphoreEXT @4928 DATA
    __glewSignalSemaphoreui64NVX @4929 DATA
    __glewSignalVkFenceNV @4930 DATA
    __glewSignalVkSemaphoreNV @4931 DATA
    __glewSpecializeShader @4932 DATA
    __glewSpecializeShaderARB @4933 DATA
    __glewSpriteParameterfSGIX @4934 DATA
    __glewSpriteParameterfvSGIX @4935 DATA
    __glewSpriteParameteriSGIX @4936 DATA
    __glewSpriteParameterivSGIX @4937 DATA
    __glewStartTilingQCOM @4938 DATA
    __glewStateCaptureNV @4939 DATA
    __glewStencilFillPathInstancedNV @4940 DATA
    __glewStencilFillPathNV @4941 DATA
    __glewStencilFuncSeparate @4942 DATA
    __glewStencilFuncSeparateATI @4943 DATA
    __glewStencilMaskSeparate @4944 DATA
    __glewStencilOpSeparate @4945 DATA
    __glewStencilOpSeparateATI @4946 DATA
    __glewStencilOpValueAMD @4947 DATA
    __glewStencilStrokePathInstancedNV @4948 DATA
    __glewStencilStrokePathNV @4949 DATA
    __glewStencilThenCoverFillPathInstancedNV @4950 DATA
    __glewStencilThenCoverFillPathNV @4951 DATA
    __glewStencilThenCoverStrokePathInstancedNV @4952 DATA
    __glewStencilThenCoverStrokePathNV @4953 DATA
    __glewStereoParameterfNV @4954 DATA
    __glewStereoParameteriNV @4955 DATA
    __glewStringMarkerGREMEDY @4956 DATA
    __glewSubpixelPrecisionBiasNV @4957 DATA
    __glewSwapMPEGPredictorsSGIX @4958 DATA
    __glewSwizzleEXT @4959 DATA
    __glewSyncTextureINTEL @4960 DATA
    __glewTagSampleBufferSGIX @4961 DATA
    __glewTangentPointerEXT @4962 DATA
    __glewTbufferMask3DFX @4963 DATA
    __glewTessellationFactorAMD @4964 DATA
    __glewTessellationModeAMD @4965 DATA
    __glewTestFenceAPPLE @4966 DATA
    __glewTestFenceNV @4967 DATA
    __glewTestObjectAPPLE @4968 DATA
    __glewTexAttachMemoryNV @4969 DATA
    __glewTexBuffer @4970 DATA
    __glewTexBufferARB @4971 DATA
    __glewTexBufferEXT @4972 DATA
    __glewTexBufferOES @4973 DATA
    __glewTexBufferRange @4974 DATA
    __glewTexBufferRangeOES @4975 DATA
    __glewTexBumpParameterfvATI @4976 DATA
    __glewTexBumpParameterivATI @4977 DATA
    __glewTexCoord1hNV @4978 DATA
    __glewTexCoord1hvNV @4979 DATA
    __glewTexCoord2fColor3fVertex3fSUN @4980 DATA
    __glewTexCoord2fColor3fVertex3fvSUN @4981 DATA
    __glewTexCoord2fColor4fNormal3fVertex3fSUN @4982 DATA
    __glewTexCoord2fColor4fNormal3fVertex3fvSUN @4983 DATA
    __glewTexCoord2fColor4ubVertex3fSUN @4984 DATA
    __glewTexCoord2fColor4ubVertex3fvSUN @4985 DATA
    __glewTexCoord2fNormal3fVertex3fSUN @4986 DATA
    __glewTexCoord2fNormal3fVertex3fvSUN @4987 DATA
    __glewTexCoord2fVertex3fSUN @4988 DATA
    __glewTexCoord2fVertex3fvSUN @4989 DATA
    __glewTexCoord2hNV @4990 DATA
    __glewTexCoord2hvNV @4991 DATA
    __glewTexCoord3hNV @4992 DATA
    __glewTexCoord3hvNV @4993 DATA
    __glewTexCoord4fColor4fNormal3fVertex4fSUN @4994 DATA
    __glewTexCoord4fColor4fNormal3fVertex4fvSUN @4995 DATA
    __glewTexCoord4fVertex4fSUN @4996 DATA
    __glewTexCoord4fVertex4fvSUN @4997 DATA
    __glewTexCoord4hNV @4998 DATA
    __glewTexCoord4hvNV @4999 DATA
    __glewTexCoordFormatNV @5000 DATA
    __glewTexCoordP1ui @5001 DATA
    __glewTexCoordP1uiv @5002 DATA
    __glewTexCoordP2ui @5003 DATA
    __glewTexCoordP2uiv @5004 DATA
    __glewTexCoordP3ui @5005 DATA
    __glewTexCoordP3uiv @5006 DATA
    __glewTexCoordP4ui @5007 DATA
    __glewTexCoordP4uiv @5008 DATA
    __glewTexCoordPointerEXT @5009 DATA
    __glewTexCoordPointerListIBM @5010 DATA
    __glewTexCoordPointervINTEL @5011 DATA
    __glewTexEnvx @5012 DATA
    __glewTexEnvxv @5013 DATA
    __glewTexFilterFuncSGIS @5014 DATA
    __glewTexGenfOES @5015 DATA
    __glewTexGenfvOES @5016 DATA
    __glewTexGeniOES @5017 DATA
    __glewTexGenivOES @5018 DATA
    __glewTexGenxOES @5019 DATA
    __glewTexGenxvOES @5020 DATA
    __glewTexImage2DMultisample @5021 DATA
    __glewTexImage2DMultisampleCoverageNV @5022 DATA
    __glewTexImage3D @5023 DATA
    __glewTexImage3DEXT @5024 DATA
    __glewTexImage3DMultisample @5025 DATA
    __glewTexImage3DMultisampleCoverageNV @5026 DATA
    __glewTexImage3DNV @5027 DATA
    __glewTexImage3DOES @5028 DATA
    __glewTexImage4DSGIS @5029 DATA
    __glewTexPageCommitmentARB @5030 DATA
    __glewTexPageCommitmentEXT @5031 DATA
    __glewTexParameterIiv @5032 DATA
    __glewTexParameterIivEXT @5033 DATA
    __glewTexParameterIivOES @5034 DATA
    __glewTexParameterIuiv @5035 DATA
    __glewTexParameterIuivEXT @5036 DATA
    __glewTexParameterIuivOES @5037 DATA
    __glewTexParameterx @5038 DATA
    __glewTexParameterxv @5039 DATA
    __glewTexRenderbufferNV @5040 DATA
    __glewTexScissorFuncINTEL @5041 DATA
    __glewTexScissorINTEL @5042 DATA
    __glewTexStorage1D @5043 DATA
    __glewTexStorage1DEXT @5044 DATA
    __glewTexStorage2D @5045 DATA
    __glewTexStorage2DEXT @5046 DATA
    __glewTexStorage2DMultisample @5047 DATA
    __glewTexStorage3D @5048 DATA
    __glewTexStorage3DEXT @5049 DATA
    __glewTexStorage3DMultisample @5050 DATA
    __glewTexStorage3DMultisampleOES @5051 DATA
    __glewTexStorageMem1DEXT @5052 DATA
    __glewTexStorageMem2DEXT @5053 DATA
    __glewTexStorageMem2DMultisampleEXT @5054 DATA
    __glewTexStorageMem3DEXT @5055 DATA
    __glewTexStorageMem3DMultisampleEXT @5056 DATA
    __glewTexStorageSparseAMD @5057 DATA
    __glewTexSubImage1DEXT @5058 DATA
    __glewTexSubImage2DEXT @5059 DATA
    __glewTexSubImage3D @5060 DATA
    __glewTexSubImage3DEXT @5061 DATA
    __glewTexSubImage3DNV @5062 DATA
    __glewTexSubImage3DOES @5063 DATA
    __glewTexSubImage4DSGIS @5064 DATA
    __glewTextureAttachMemoryNV @5065 DATA
    __glewTextureBarrier @5066 DATA
    __glewTextureBarrierNV @5067 DATA
    __glewTextureBuffer @5068 DATA
    __glewTextureBufferEXT @5069 DATA
    __glewTextureBufferRange @5070 DATA
    __glewTextureBufferRangeEXT @5071 DATA
    __glewTextureFogSGIX @5072 DATA
    __glewTextureFoveationParametersQCOM @5073 DATA
    __glewTextureImage1DEXT @5074 DATA
    __glewTextureImage2DEXT @5075 DATA
    __glewTextureImage2DMultisampleCoverageNV @5076 DATA
    __glewTextureImage2DMultisampleNV @5077 DATA
    __glewTextureImage3DEXT @5078 DATA
    __glewTextureImage3DMultisampleCoverageNV @5079 DATA
    __glewTextureImage3DMultisampleNV @5080 DATA
    __glewTextureLightEXT @5081 DATA
    __glewTextureMaterialEXT @5082 DATA
    __glewTextureNormalEXT @5083 DATA
    __glewTexturePageCommitmentEXT @5084 DATA
    __glewTextureParameterIiv @5085 DATA
    __glewTextureParameterIivEXT @5086 DATA
    __glewTextureParameterIuiv @5087 DATA
    __glewTextureParameterIuivEXT @5088 DATA
    __glewTextureParameterf @5089 DATA
    __glewTextureParameterfEXT @5090 DATA
    __glewTextureParameterfv @5091 DATA
    __glewTextureParameterfvEXT @5092 DATA
    __glewTextureParameteri @5093 DATA
    __glewTextureParameteriEXT @5094 DATA
    __glewTextureParameteriv @5095 DATA
    __glewTextureParameterivEXT @5096 DATA
    __glewTextureRangeAPPLE @5097 DATA
    __glewTextureRenderbufferEXT @5098 DATA
    __glewTextureStorage1D @5099 DATA
    __glewTextureStorage1DEXT @5100 DATA
    __glewTextureStorage2D @5101 DATA
    __glewTextureStorage2DEXT @5102 DATA
    __glewTextureStorage2DMultisample @5103 DATA
    __glewTextureStorage2DMultisampleEXT @5104 DATA
    __glewTextureStorage3D @5105 DATA
    __glewTextureStorage3DEXT @5106 DATA
    __glewTextureStorage3DMultisample @5107 DATA
    __glewTextureStorage3DMultisampleEXT @5108 DATA
    __glewTextureStorageMem1DEXT @5109 DATA
    __glewTextureStorageMem2DEXT @5110 DATA
    __glewTextureStorageMem2DMultisampleEXT @5111 DATA
    __glewTextureStorageMem3DEXT @5112 DATA
    __glewTextureStorageMem3DMultisampleEXT @5113 DATA
    __glewTextureStorageSparseAMD @5114 DATA
    __glewTextureSubImage1D @5115 DATA
    __glewTextureSubImage1DEXT @5116 DATA
    __glewTextureSubImage2D @5117 DATA
    __glewTextureSubImage2DEXT @5118 DATA
    __glewTextureSubImage3D @5119 DATA
    __glewTextureSubImage3DEXT @5120 DATA
    __glewTextureView @5121 DATA
    __glewTextureViewEXT @5122 DATA
    __glewTextureViewOES @5123 DATA
    __glewTrackMatrixNV @5124 DATA
    __glewTransformFeedbackAttribsNV @5125 DATA
    __glewTransformFeedbackBufferBase @5126 DATA
    __glewTransformFeedbackBufferRange @5127 DATA
    __glewTransformFeedbackVaryings @5128 DATA
    __glewTransformFeedbackVaryingsEXT @5129 DATA
    __glewTransformFeedbackVaryingsNV @5130 DATA
    __glewTransformPathNV @5131 DATA
    __glewTranslatex @5132 DATA
    __glewUniform1d @5133 DATA
    __glewUniform1dv @5134 DATA
    __glewUniform1f @5135 DATA
    __glewUniform1fARB @5136 DATA
    __glewUniform1fv @5137 DATA
    __glewUniform1fvARB @5138 DATA
    __glewUniform1i @5139 DATA
    __glewUniform1i64ARB @5140 DATA
    __glewUniform1i64NV @5141 DATA
    __glewUniform1i64vARB @5142 DATA
    __glewUniform1i64vNV @5143 DATA
    __glewUniform1iARB @5144 DATA
    __glewUniform1iv @5145 DATA
    __glewUniform1ivARB @5146 DATA
    __glewUniform1ui @5147 DATA
    __glewUniform1ui64ARB @5148 DATA
    __glewUniform1ui64NV @5149 DATA
    __glewUniform1ui64vARB @5150 DATA
    __glewUniform1ui64vNV @5151 DATA
    __glewUniform1uiEXT @5152 DATA
    __glewUniform1uiv @5153 DATA
    __glewUniform1uivEXT @5154 DATA
    __glewUniform2d @5155 DATA
    __glewUniform2dv @5156 DATA
    __glewUniform2f @5157 DATA
    __glewUniform2fARB @5158 DATA
    __glewUniform2fv @5159 DATA
    __glewUniform2fvARB @5160 DATA
    __glewUniform2i @5161 DATA
    __glewUniform2i64ARB @5162 DATA
    __glewUniform2i64NV @5163 DATA
    __glewUniform2i64vARB @5164 DATA
    __glewUniform2i64vNV @5165 DATA
    __glewUniform2iARB @5166 DATA
    __glewUniform2iv @5167 DATA
    __glewUniform2ivARB @5168 DATA
    __glewUniform2ui @5169 DATA
    __glewUniform2ui64ARB @5170 DATA
    __glewUniform2ui64NV @5171 DATA
    __glewUniform2ui64vARB @5172 DATA
    __glewUniform2ui64vNV @5173 DATA
    __glewUniform2uiEXT @5174 DATA
    __glewUniform2uiv @5175 DATA
    __glewUniform2uivEXT @5176 DATA
    __glewUniform3d @5177 DATA
    __glewUniform3dv @5178 DATA
    __glewUniform3f @5179 DATA
    __glewUniform3fARB @5180 DATA
    __glewUniform3fv @5181 DATA
    __glewUniform3fvARB @5182 DATA
    __glewUniform3i @5183 DATA
    __glewUniform3i64ARB @5184 DATA
    __glewUniform3i64NV @5185 DATA
    __glewUniform3i64vARB @5186 DATA
    __glewUniform3i64vNV @5187 DATA
    __glewUniform3iARB @5188 DATA
    __glewUniform3iv @5189 DATA
    __glewUniform3ivARB @5190 DATA
    __glewUniform3ui @5191 DATA
    __glewUniform3ui64ARB @5192 DATA
    __glewUniform3ui64NV @5193 DATA
    __glewUniform3ui64vARB @5194 DATA
    __glewUniform3ui64vNV @5195 DATA
    __glewUniform3uiEXT @5196 DATA
    __glewUniform3uiv @5197 DATA
    __glewUniform3uivEXT @5198 DATA
    __glewUniform4d @5199 DATA
    __glewUniform4dv @5200 DATA
    __glewUniform4f @5201 DATA
    __glewUniform4fARB @5202 DATA
    __glewUniform4fv @5203 DATA
    __glewUniform4fvARB @5204 DATA
    __glewUniform4i @5205 DATA
    __glewUniform4i64ARB @5206 DATA
    __glewUniform4i64NV @5207 DATA
    __glewUniform4i64vARB @5208 DATA
    __glewUniform4i64vNV @5209 DATA
    __glewUniform4iARB @5210 DATA
    __glewUniform4iv @5211 DATA
    __glewUniform4ivARB @5212 DATA
    __glewUniform4ui @5213 DATA
    __glewUniform4ui64ARB @5214 DATA
    __glewUniform4ui64NV @5215 DATA
    __glewUniform4ui64vARB @5216 DATA
    __glewUniform4ui64vNV @5217 DATA
    __glewUniform4uiEXT @5218 DATA
    __glewUniform4uiv @5219 DATA
    __glewUniform4uivEXT @5220 DATA
    __glewUniformBlockBinding @5221 DATA
    __glewUniformBufferEXT @5222 DATA
    __glewUniformHandleui64ARB @5223 DATA
    __glewUniformHandleui64IMG @5224 DATA
    __glewUniformHandleui64NV @5225 DATA
    __glewUniformHandleui64vARB @5226 DATA
    __glewUniformHandleui64vIMG @5227 DATA
    __glewUniformHandleui64vNV @5228 DATA
    __glewUniformMatrix2dv @5229 DATA
    __glewUniformMatrix2fv @5230 DATA
    __glewUniformMatrix2fvARB @5231 DATA
    __glewUniformMatrix2x3dv @5232 DATA
    __glewUniformMatrix2x3fv @5233 DATA
    __glewUniformMatrix2x3fvNV @5234 DATA
    __glewUniformMatrix2x4dv @5235 DATA
    __glewUniformMatrix2x4fv @5236 DATA
    __glewUniformMatrix2x4fvNV @5237 DATA
    __glewUniformMatrix3dv @5238 DATA
    __glewUniformMatrix3fv @5239 DATA
    __glewUniformMatrix3fvARB @5240 DATA
    __glewUniformMatrix3x2dv @5241 DATA
    __glewUniformMatrix3x2fv @5242 DATA
    __glewUniformMatrix3x2fvNV @5243 DATA
    __glewUniformMatrix3x4dv @5244 DATA
    __glewUniformMatrix3x4fv @5245 DATA
    __glewUniformMatrix3x4fvNV @5246 DATA
    __glewUniformMatrix4dv @5247 DATA
    __glewUniformMatrix4fv @5248 DATA
    __glewUniformMatrix4fvARB @5249 DATA
    __glewUniformMatrix4x2dv @5250 DATA
    __glewUniformMatrix4x2fv @5251 DATA
    __glewUniformMatrix4x2fvNV @5252 DATA
    __glewUniformMatrix4x3dv @5253 DATA
    __glewUniformMatrix4x3fv @5254 DATA
    __glewUniformMatrix4x3fvNV @5255 DATA
    __glewUniformSubroutinesuiv @5256 DATA
    __glewUniformui64NV @5257 DATA
    __glewUniformui64vNV @5258 DATA
    __glewUnlockArraysEXT @5259 DATA
    __glewUnmapBuffer @5260 DATA
    __glewUnmapBufferARB @5261 DATA
    __glewUnmapBufferOES @5262 DATA
    __glewUnmapNamedBuffer @5263 DATA
    __glewUnmapNamedBufferEXT @5264 DATA
    __glewUnmapObjectBufferATI @5265 DATA
    __glewUnmapTexture2DINTEL @5266 DATA
    __glewUpdateObjectBufferATI @5267 DATA
    __glewUploadGpuMaskNVX @5268 DATA
    __glewUseProgram @5269 DATA
    __glewUseProgramObjectARB @5270 DATA
    __glewUseProgramStages @5271 DATA
    __glewUseShaderProgramEXT @5272 DATA
    __glewVDPAUFiniNV @5273 DATA
    __glewVDPAUGetSurfaceivNV @5274 DATA
    __glewVDPAUInitNV @5275 DATA
    __glewVDPAUIsSurfaceNV @5276 DATA
    __glewVDPAUMapSurfacesNV @5277 DATA
    __glewVDPAURegisterOutputSurfaceNV @5278 DATA
    __glewVDPAURegisterVideoSurfaceNV @5279 DATA
    __glewVDPAURegisterVideoSurfaceWithPictureStructureNV @5280 DATA
    __glewVDPAUSurfaceAccessNV @5281 DATA
    __glewVDPAUUnmapSurfacesNV @5282 DATA
    __glewVDPAUUnregisterSurfaceNV @5283 DATA
    __glewValidateProgram @5284 DATA
    __glewValidateProgramARB @5285 DATA
    __glewValidateProgramPipeline @5286 DATA
    __glewVariantArrayObjectATI @5287 DATA
    __glewVariantPointerEXT @5288 DATA
    __glewVariantbvEXT @5289 DATA
    __glewVariantdvEXT @5290 DATA
    __glewVariantfvEXT @5291 DATA
    __glewVariantivEXT @5292 DATA
    __glewVariantsvEXT @5293 DATA
    __glewVariantubvEXT @5294 DATA
    __glewVariantuivEXT @5295 DATA
    __glewVariantusvEXT @5296 DATA
    __glewVectorOperationSGIX @5297 DATA
    __glewVertex2hNV @5298 DATA
    __glewVertex2hvNV @5299 DATA
    __glewVertex3hNV @5300 DATA
    __glewVertex3hvNV @5301 DATA
    __glewVertex4hNV @5302 DATA
    __glewVertex4hvNV @5303 DATA
    __glewVertexArrayAttribBinding @5304 DATA
    __glewVertexArrayAttribFormat @5305 DATA
    __glewVertexArrayAttribIFormat @5306 DATA
    __glewVertexArrayAttribLFormat @5307 DATA
    __glewVertexArrayBindVertexBufferEXT @5308 DATA
    __glewVertexArrayBindingDivisor @5309 DATA
    __glewVertexArrayColorOffsetEXT @5310 DATA
    __glewVertexArrayEdgeFlagOffsetEXT @5311 DATA
    __glewVertexArrayElementBuffer @5312 DATA
    __glewVertexArrayFogCoordOffsetEXT @5313 DATA
    __glewVertexArrayIndexOffsetEXT @5314 DATA
    __glewVertexArrayMultiTexCoordOffsetEXT @5315 DATA
    __glewVertexArrayNormalOffsetEXT @5316 DATA
    __glewVertexArrayParameteriAPPLE @5317 DATA
    __glewVertexArrayRangeAPPLE @5318 DATA
    __glewVertexArrayRangeNV @5319 DATA
    __glewVertexArraySecondaryColorOffsetEXT @5320 DATA
    __glewVertexArrayTexCoordOffsetEXT @5321 DATA
    __glewVertexArrayVertexAttribBindingEXT @5322 DATA
    __glewVertexArrayVertexAttribDivisorEXT @5323 DATA
    __glewVertexArrayVertexAttribFormatEXT @5324 DATA
    __glewVertexArrayVertexAttribIFormatEXT @5325 DATA
    __glewVertexArrayVertexAttribIOffsetEXT @5326 DATA
    __glewVertexArrayVertexAttribLFormatEXT @5327 DATA
    __glewVertexArrayVertexAttribLOffsetEXT @5328 DATA
    __glewVertexArrayVertexAttribOffsetEXT @5329 DATA
    __glewVertexArrayVertexBindingDivisorEXT @5330 DATA
    __glewVertexArrayVertexBuffer @5331 DATA
    __glewVertexArrayVertexBuffers @5332 DATA
    __glewVertexArrayVertexOffsetEXT @5333 DATA
    __glewVertexAttrib1d @5334 DATA
    __glewVertexAttrib1dARB @5335 DATA
    __glewVertexAttrib1dNV @5336 DATA
    __glewVertexAttrib1dv @5337 DATA
    __glewVertexAttrib1dvARB @5338 DATA
    __glewVertexAttrib1dvNV @5339 DATA
    __glewVertexAttrib1f @5340 DATA
    __glewVertexAttrib1fARB @5341 DATA
    __glewVertexAttrib1fNV @5342 DATA
    __glewVertexAttrib1fv @5343 DATA
    __glewVertexAttrib1fvARB @5344 DATA
    __glewVertexAttrib1fvNV @5345 DATA
    __glewVertexAttrib1hNV @5346 DATA
    __glewVertexAttrib1hvNV @5347 DATA
    __glewVertexAttrib1s @5348 DATA
    __glewVertexAttrib1sARB @5349 DATA
    __glewVertexAttrib1sNV @5350 DATA
    __glewVertexAttrib1sv @5351 DATA
    __glewVertexAttrib1svARB @5352 DATA
    __glewVertexAttrib1svNV @5353 DATA
    __glewVertexAttrib2d @5354 DATA
    __glewVertexAttrib2dARB @5355 DATA
    __glewVertexAttrib2dNV @5356 DATA
    __glewVertexAttrib2dv @5357 DATA
    __glewVertexAttrib2dvARB @5358 DATA
    __glewVertexAttrib2dvNV @5359 DATA
    __glewVertexAttrib2f @5360 DATA
    __glewVertexAttrib2fARB @5361 DATA
    __glewVertexAttrib2fNV @5362 DATA
    __glewVertexAttrib2fv @5363 DATA
    __glewVertexAttrib2fvARB @5364 DATA
    __glewVertexAttrib2fvNV @5365 DATA
    __glewVertexAttrib2hNV @5366 DATA
    __glewVertexAttrib2hvNV @5367 DATA
    __glewVertexAttrib2s @5368 DATA
    __glewVertexAttrib2sARB @5369 DATA
    __glewVertexAttrib2sNV @5370 DATA
    __glewVertexAttrib2sv @5371 DATA
    __glewVertexAttrib2svARB @5372 DATA
    __glewVertexAttrib2svNV @5373 DATA
    __glewVertexAttrib3d @5374 DATA
    __glewVertexAttrib3dARB @5375 DATA
    __glewVertexAttrib3dNV @5376 DATA
    __glewVertexAttrib3dv @5377 DATA
    __glewVertexAttrib3dvARB @5378 DATA
    __glewVertexAttrib3dvNV @5379 DATA
    __glewVertexAttrib3f @5380 DATA
    __glewVertexAttrib3fARB @5381 DATA
    __glewVertexAttrib3fNV @5382 DATA
    __glewVertexAttrib3fv @5383 DATA
    __glewVertexAttrib3fvARB @5384 DATA
    __glewVertexAttrib3fvNV @5385 DATA
    __glewVertexAttrib3hNV @5386 DATA
    __glewVertexAttrib3hvNV @5387 DATA
    __glewVertexAttrib3s @5388 DATA
    __glewVertexAttrib3sARB @5389 DATA
    __glewVertexAttrib3sNV @5390 DATA
    __glewVertexAttrib3sv @5391 DATA
    __glewVertexAttrib3svARB @5392 DATA
    __glewVertexAttrib3svNV @5393 DATA
    __glewVertexAttrib4Nbv @5394 DATA
    __glewVertexAttrib4NbvARB @5395 DATA
    __glewVertexAttrib4Niv @5396 DATA
    __glewVertexAttrib4NivARB @5397 DATA
    __glewVertexAttrib4Nsv @5398 DATA
    __glewVertexAttrib4NsvARB @5399 DATA
    __glewVertexAttrib4Nub @5400 DATA
    __glewVertexAttrib4NubARB @5401 DATA
    __glewVertexAttrib4Nubv @5402 DATA
    __glewVertexAttrib4NubvARB @5403 DATA
    __glewVertexAttrib4Nuiv @5404 DATA
    __glewVertexAttrib4NuivARB @5405 DATA
    __glewVertexAttrib4Nusv @5406 DATA
    __glewVertexAttrib4NusvARB @5407 DATA
    __glewVertexAttrib4bv @5408 DATA
    __glewVertexAttrib4bvARB @5409 DATA
    __glewVertexAttrib4d @5410 DATA
    __glewVertexAttrib4dARB @5411 DATA
    __glewVertexAttrib4dNV @5412 DATA
    __glewVertexAttrib4dv @5413 DATA
    __glewVertexAttrib4dvARB @5414 DATA
    __glewVertexAttrib4dvNV @5415 DATA
    __glewVertexAttrib4f @5416 DATA
    __glewVertexAttrib4fARB @5417 DATA
    __glewVertexAttrib4fNV @5418 DATA
    __glewVertexAttrib4fv @5419 DATA
    __glewVertexAttrib4fvARB @5420 DATA
    __glewVertexAttrib4fvNV @5421 DATA
    __glewVertexAttrib4hNV @5422 DATA
    __glewVertexAttrib4hvNV @5423 DATA
    __glewVertexAttrib4iv @5424 DATA
    __glewVertexAttrib4ivARB @5425 DATA
    __glewVertexAttrib4s @5426 DATA
    __glewVertexAttrib4sARB @5427 DATA
    __glewVertexAttrib4sNV @5428 DATA
    __glewVertexAttrib4sv @5429 DATA
    __glewVertexAttrib4svARB @5430 DATA
    __glewVertexAttrib4svNV @5431 DATA
    __glewVertexAttrib4ubNV @5432 DATA
    __glewVertexAttrib4ubv @5433 DATA
    __glewVertexAttrib4ubvARB @5434 DATA
    __glewVertexAttrib4ubvNV @5435 DATA
    __glewVertexAttrib4uiv @5436 DATA
    __glewVertexAttrib4uivARB @5437 DATA
    __glewVertexAttrib4usv @5438 DATA
    __glewVertexAttrib4usvARB @5439 DATA
    __glewVertexAttribArrayObjectATI @5440 DATA
    __glewVertexAttribBinding @5441 DATA
    __glewVertexAttribDivisor @5442 DATA
    __glewVertexAttribDivisorANGLE @5443 DATA
    __glewVertexAttribDivisorARB @5444 DATA
    __glewVertexAttribDivisorEXT @5445 DATA
    __glewVertexAttribDivisorNV @5446 DATA
    __glewVertexAttribFormat @5447 DATA
    __glewVertexAttribFormatNV @5448 DATA
    __glewVertexAttribI1i @5449 DATA
    __glewVertexAttribI1iEXT @5450 DATA
    __glewVertexAttribI1iv @5451 DATA
    __glewVertexAttribI1ivEXT @5452 DATA
    __glewVertexAttribI1ui @5453 DATA
    __glewVertexAttribI1uiEXT @5454 DATA
    __glewVertexAttribI1uiv @5455 DATA
    __glewVertexAttribI1uivEXT @5456 DATA
    __glewVertexAttribI2i @5457 DATA
    __glewVertexAttribI2iEXT @5458 DATA
    __glewVertexAttribI2iv @5459 DATA
    __glewVertexAttribI2ivEXT @5460 DATA
    __glewVertexAttribI2ui @5461 DATA
    __glewVertexAttribI2uiEXT @5462 DATA
    __glewVertexAttribI2uiv @5463 DATA
    __glewVertexAttribI2uivEXT @5464 DATA
    __glewVertexAttribI3i @5465 DATA
    __glewVertexAttribI3iEXT @5466 DATA
    __glewVertexAttribI3iv @5467 DATA
    __glewVertexAttribI3ivEXT @5468 DATA
    __glewVertexAttribI3ui @5469 DATA
    __glewVertexAttribI3uiEXT @5470 DATA
    __glewVertexAttribI3uiv @5471 DATA
    __glewVertexAttribI3uivEXT @5472 DATA
    __glewVertexAttribI4bv @5473 DATA
    __glewVertexAttribI4bvEXT @5474 DATA
    __glewVertexAttribI4i @5475 DATA
    __glewVertexAttribI4iEXT @5476 DATA
    __glewVertexAttribI4iv @5477 DATA
    __glewVertexAttribI4ivEXT @5478 DATA
    __glewVertexAttribI4sv @5479 DATA
    __glewVertexAttribI4svEXT @5480 DATA
    __glewVertexAttribI4ubv @5481 DATA
    __glewVertexAttribI4ubvEXT @5482 DATA
    __glewVertexAttribI4ui @5483 DATA
    __glewVertexAttribI4uiEXT @5484 DATA
    __glewVertexAttribI4uiv @5485 DATA
    __glewVertexAttribI4uivEXT @5486 DATA
    __glewVertexAttribI4usv @5487 DATA
    __glewVertexAttribI4usvEXT @5488 DATA
    __glewVertexAttribIFormat @5489 DATA
    __glewVertexAttribIFormatNV @5490 DATA
    __glewVertexAttribIPointer @5491 DATA
    __glewVertexAttribIPointerEXT @5492 DATA
    __glewVertexAttribL1d @5493 DATA
    __glewVertexAttribL1dEXT @5494 DATA
    __glewVertexAttribL1dv @5495 DATA
    __glewVertexAttribL1dvEXT @5496 DATA
    __glewVertexAttribL1i64NV @5497 DATA
    __glewVertexAttribL1i64vNV @5498 DATA
    __glewVertexAttribL1ui64ARB @5499 DATA
    __glewVertexAttribL1ui64NV @5500 DATA
    __glewVertexAttribL1ui64vARB @5501 DATA
    __glewVertexAttribL1ui64vNV @5502 DATA
    __glewVertexAttribL2d @5503 DATA
    __glewVertexAttribL2dEXT @5504 DATA
    __glewVertexAttribL2dv @5505 DATA
    __glewVertexAttribL2dvEXT @5506 DATA
    __glewVertexAttribL2i64NV @5507 DATA
    __glewVertexAttribL2i64vNV @5508 DATA
    __glewVertexAttribL2ui64NV @5509 DATA
    __glewVertexAttribL2ui64vNV @5510 DATA
    __glewVertexAttribL3d @5511 DATA
    __glewVertexAttribL3dEXT @5512 DATA
    __glewVertexAttribL3dv @5513 DATA
    __glewVertexAttribL3dvEXT @5514 DATA
    __glewVertexAttribL3i64NV @5515 DATA
    __glewVertexAttribL3i64vNV @5516 DATA
    __glewVertexAttribL3ui64NV @5517 DATA
    __glewVertexAttribL3ui64vNV @5518 DATA
    __glewVertexAttribL4d @5519 DATA
    __glewVertexAttribL4dEXT @5520 DATA
    __glewVertexAttribL4dv @5521 DATA
    __glewVertexAttribL4dvEXT @5522 DATA
    __glewVertexAttribL4i64NV @5523 DATA
    __glewVertexAttribL4i64vNV @5524 DATA
    __glewVertexAttribL4ui64NV @5525 DATA
    __glewVertexAttribL4ui64vNV @5526 DATA
    __glewVertexAttribLFormat @5527 DATA
    __glewVertexAttribLFormatNV @5528 DATA
    __glewVertexAttribLPointer @5529 DATA
    __glewVertexAttribLPointerEXT @5530 DATA
    __glewVertexAttribP1ui @5531 DATA
    __glewVertexAttribP1uiv @5532 DATA
    __glewVertexAttribP2ui @5533 DATA
    __glewVertexAttribP2uiv @5534 DATA
    __glewVertexAttribP3ui @5535 DATA
    __glewVertexAttribP3uiv @5536 DATA
    __glewVertexAttribP4ui @5537 DATA
    __glewVertexAttribP4uiv @5538 DATA
    __glewVertexAttribParameteriAMD @5539 DATA
    __glewVertexAttribPointer @5540 DATA
    __glewVertexAttribPointerARB @5541 DATA
    __glewVertexAttribPointerNV @5542 DATA
    __glewVertexAttribs1dvNV @5543 DATA
    __glewVertexAttribs1fvNV @5544 DATA
    __glewVertexAttribs1hvNV @5545 DATA
    __glewVertexAttribs1svNV @5546 DATA
    __glewVertexAttribs2dvNV @5547 DATA
    __glewVertexAttribs2fvNV @5548 DATA
    __glewVertexAttribs2hvNV @5549 DATA
    __glewVertexAttribs2svNV @5550 DATA
    __glewVertexAttribs3dvNV @5551 DATA
    __glewVertexAttribs3fvNV @5552 DATA
    __glewVertexAttribs3hvNV @5553 DATA
    __glewVertexAttribs3svNV @5554 DATA
    __glewVertexAttribs4dvNV @5555 DATA
    __glewVertexAttribs4fvNV @5556 DATA
    __glewVertexAttribs4hvNV @5557 DATA
    __glewVertexAttribs4svNV @5558 DATA
    __glewVertexAttribs4ubvNV @5559 DATA
    __glewVertexBindingDivisor @5560 DATA
    __glewVertexBlendARB @5561 DATA
    __glewVertexBlendEnvfATI @5562 DATA
    __glewVertexBlendEnviATI @5563 DATA
    __glewVertexFormatNV @5564 DATA
    __glewVertexP2ui @5565 DATA
    __glewVertexP2uiv @5566 DATA
    __glewVertexP3ui @5567 DATA
    __glewVertexP3uiv @5568 DATA
    __glewVertexP4ui @5569 DATA
    __glewVertexP4uiv @5570 DATA
    __glewVertexPointerEXT @5571 DATA
    __glewVertexPointerListIBM @5572 DATA
    __glewVertexPointervINTEL @5573 DATA
    __glewVertexStream1dATI @5574 DATA
    __glewVertexStream1dvATI @5575 DATA
    __glewVertexStream1fATI @5576 DATA
    __glewVertexStream1fvATI @5577 DATA
    __glewVertexStream1iATI @5578 DATA
    __glewVertexStream1ivATI @5579 DATA
    __glewVertexStream1sATI @5580 DATA
    __glewVertexStream1svATI @5581 DATA
    __glewVertexStream2dATI @5582 DATA
    __glewVertexStream2dvATI @5583 DATA
    __glewVertexStream2fATI @5584 DATA
    __glewVertexStream2fvATI @5585 DATA
    __glewVertexStream2iATI @5586 DATA
    __glewVertexStream2ivATI @5587 DATA
    __glewVertexStream2sATI @5588 DATA
    __glewVertexStream2svATI @5589 DATA
    __glewVertexStream3dATI @5590 DATA
    __glewVertexStream3dvATI @5591 DATA
    __glewVertexStream3fATI @5592 DATA
    __glewVertexStream3fvATI @5593 DATA
    __glewVertexStream3iATI @5594 DATA
    __glewVertexStream3ivATI @5595 DATA
    __glewVertexStream3sATI @5596 DATA
    __glewVertexStream3svATI @5597 DATA
    __glewVertexStream4dATI @5598 DATA
    __glewVertexStream4dvATI @5599 DATA
    __glewVertexStream4fATI @5600 DATA
    __glewVertexStream4fvATI @5601 DATA
    __glewVertexStream4iATI @5602 DATA
    __glewVertexStream4ivATI @5603 DATA
    __glewVertexStream4sATI @5604 DATA
    __glewVertexStream4svATI @5605 DATA
    __glewVertexWeightPointerEXT @5606 DATA
    __glewVertexWeightfEXT @5607 DATA
    __glewVertexWeightfvEXT @5608 DATA
    __glewVertexWeighthNV @5609 DATA
    __glewVertexWeighthvNV @5610 DATA
    __glewVideoCaptureNV @5611 DATA
    __glewVideoCaptureStreamParameterdvNV @5612 DATA
    __glewVideoCaptureStreamParameterfvNV @5613 DATA
    __glewVideoCaptureStreamParameterivNV @5614 DATA
    __glewViewportArrayv @5615 DATA
    __glewViewportArrayvNV @5616 DATA
    __glewViewportIndexedf @5617 DATA
    __glewViewportIndexedfNV @5618 DATA
    __glewViewportIndexedfv @5619 DATA
    __glewViewportIndexedfvNV @5620 DATA
    __glewViewportPositionWScaleNV @5621 DATA
    __glewViewportSwizzleNV @5622 DATA
    __glewWaitSemaphoreEXT @5623 DATA
    __glewWaitSemaphoreui64NVX @5624 DATA
    __glewWaitSync @5625 DATA
    __glewWaitSyncAPPLE @5626 DATA
    __glewWaitVkSemaphoreNV @5627 DATA
    __glewWeightPathsNV @5628 DATA
    __glewWeightPointerARB @5629 DATA
    __glewWeightPointerOES @5630 DATA
    __glewWeightbvARB @5631 DATA
    __glewWeightdvARB @5632 DATA
    __glewWeightfvARB @5633 DATA
    __glewWeightivARB @5634 DATA
    __glewWeightsvARB @5635 DATA
    __glewWeightubvARB @5636 DATA
    __glewWeightuivARB @5637 DATA
    __glewWeightusvARB @5638 DATA
    __glewWindowPos2d @5639 DATA
    __glewWindowPos2dARB @5640 DATA
    __glewWindowPos2dMESA @5641 DATA
    __glewWindowPos2dv @5642 DATA
    __glewWindowPos2dvARB @5643 DATA
    __glewWindowPos2dvMESA @5644 DATA
    __glewWindowPos2f @5645 DATA
    __glewWindowPos2fARB @5646 DATA
    __glewWindowPos2fMESA @5647 DATA
    __glewWindowPos2fv @5648 DATA
    __glewWindowPos2fvARB @5649 DATA
    __glewWindowPos2fvMESA @5650 DATA
    __glewWindowPos2i @5651 DATA
    __glewWindowPos2iARB @5652 DATA
    __glewWindowPos2iMESA @5653 DATA
    __glewWindowPos2iv @5654 DATA
    __glewWindowPos2ivARB @5655 DATA
    __glewWindowPos2ivMESA @5656 DATA
    __glewWindowPos2s @5657 DATA
    __glewWindowPos2sARB @5658 DATA
    __glewWindowPos2sMESA @5659 DATA
    __glewWindowPos2sv @5660 DATA
    __glewWindowPos2svARB @5661 DATA
    __glewWindowPos2svMESA @5662 DATA
    __glewWindowPos3d @5663 DATA
    __glewWindowPos3dARB @5664 DATA
    __glewWindowPos3dMESA @5665 DATA
    __glewWindowPos3dv @5666 DATA
    __glewWindowPos3dvARB @5667 DATA
    __glewWindowPos3dvMESA @5668 DATA
    __glewWindowPos3f @5669 DATA
    __glewWindowPos3fARB @5670 DATA
    __glewWindowPos3fMESA @5671 DATA
    __glewWindowPos3fv @5672 DATA
    __glewWindowPos3fvARB @5673 DATA
    __glewWindowPos3fvMESA @5674 DATA
    __glewWindowPos3i @5675 DATA
    __glewWindowPos3iARB @5676 DATA
    __glewWindowPos3iMESA @5677 DATA
    __glewWindowPos3iv @5678 DATA
    __glewWindowPos3ivARB @5679 DATA
    __glewWindowPos3ivMESA @5680 DATA
    __glewWindowPos3s @5681 DATA
    __glewWindowPos3sARB @5682 DATA
    __glewWindowPos3sMESA @5683 DATA
    __glewWindowPos3sv @5684 DATA
    __glewWindowPos3svARB @5685 DATA
    __glewWindowPos3svMESA @5686 DATA
    __glewWindowPos4dMESA @5687 DATA
    __glewWindowPos4dvMESA @5688 DATA
    __glewWindowPos4fMESA @5689 DATA
    __glewWindowPos4fvMESA @5690 DATA
    __glewWindowPos4iMESA @5691 DATA
    __glewWindowPos4ivMESA @5692 DATA
    __glewWindowPos4sMESA @5693 DATA
    __glewWindowPos4svMESA @5694 DATA
    __glewWindowRectanglesEXT @5695 DATA
    __glewWriteMaskEXT @5696 DATA
    __pth_gpointer_locked @5697
    __pthread_clock_nanosleep @5698
    __pthread_shallcancel @5699
    __wglewAllocateMemoryNV @5700 DATA
    __wglewAssociateImageBufferEventsI3D @5701 DATA
    __wglewBeginFrameTrackingI3D @5702 DATA
    __wglewBindDisplayColorTableEXT @5703 DATA
    __wglewBindSwapBarrierNV @5704 DATA
    __wglewBindTexImageARB @5705 DATA
    __wglewBindVideoCaptureDeviceNV @5706 DATA
    __wglewBindVideoDeviceNV @5707 DATA
    __wglewBindVideoImageNV @5708 DATA
    __wglewBlitContextFramebufferAMD @5709 DATA
    __wglewChoosePixelFormatARB @5710 DATA
    __wglewChoosePixelFormatEXT @5711 DATA
    __wglewCopyImageSubDataNV @5712 DATA
    __wglewCreateAffinityDCNV @5713 DATA
    __wglewCreateAssociatedContextAMD @5714 DATA
    __wglewCreateAssociatedContextAttribsAMD @5715 DATA
    __wglewCreateBufferRegionARB @5716 DATA
    __wglewCreateContextAttribsARB @5717 DATA
    __wglewCreateDisplayColorTableEXT @5718 DATA
    __wglewCreateImageBufferI3D @5719 DATA
    __wglewCreatePbufferARB @5720 DATA
    __wglewCreatePbufferEXT @5721 DATA
    __wglewDXCloseDeviceNV @5722 DATA
    __wglewDXLockObjectsNV @5723 DATA
    __wglewDXObjectAccessNV @5724 DATA
    __wglewDXOpenDeviceNV @5725 DATA
    __wglewDXRegisterObjectNV @5726 DATA
    __wglewDXSetResourceShareHandleNV @5727 DATA
    __wglewDXUnlockObjectsNV @5728 DATA
    __wglewDXUnregisterObjectNV @5729 DATA
    __wglewDelayBeforeSwapNV @5730 DATA
    __wglewDeleteAssociatedContextAMD @5731 DATA
    __wglewDeleteBufferRegionARB @5732 DATA
    __wglewDeleteDCNV @5733 DATA
    __wglewDestroyDisplayColorTableEXT @5734 DATA
    __wglewDestroyImageBufferI3D @5735 DATA
    __wglewDestroyPbufferARB @5736 DATA
    __wglewDestroyPbufferEXT @5737 DATA
    __wglewDisableFrameLockI3D @5738 DATA
    __wglewDisableGenlockI3D @5739 DATA
    __wglewEnableFrameLockI3D @5740 DATA
    __wglewEnableGenlockI3D @5741 DATA
    __wglewEndFrameTrackingI3D @5742 DATA
    __wglewEnumGpuDevicesNV @5743 DATA
    __wglewEnumGpusFromAffinityDCNV @5744 DATA
    __wglewEnumGpusNV @5745 DATA
    __wglewEnumerateVideoCaptureDevicesNV @5746 DATA
    __wglewEnumerateVideoDevicesNV @5747 DATA
    __wglewFreeMemoryNV @5748 DATA
    __wglewGenlockSampleRateI3D @5749 DATA
    __wglewGenlockSourceDelayI3D @5750 DATA
    __wglewGenlockSourceEdgeI3D @5751 DATA
    __wglewGenlockSourceI3D @5752 DATA
    __wglewGetContextGPUIDAMD @5753 DATA
    __wglewGetCurrentAssociatedContextAMD @5754 DATA
    __wglewGetCurrentReadDCARB @5755 DATA
    __wglewGetCurrentReadDCEXT @5756 DATA
    __wglewGetDigitalVideoParametersI3D @5757 DATA
    __wglewGetExtensionsStringARB @5758 DATA
    __wglewGetExtensionsStringEXT @5759 DATA
    __wglewGetFrameUsageI3D @5760 DATA
    __wglewGetGPUIDsAMD @5761 DATA
    __wglewGetGPUInfoAMD @5762 DATA
    __wglewGetGammaTableI3D @5763 DATA
    __wglewGetGammaTableParametersI3D @5764 DATA
    __wglewGetGenlockSampleRateI3D @5765 DATA
    __wglewGetGenlockSourceDelayI3D @5766 DATA
    __wglewGetGenlockSourceEdgeI3D @5767 DATA
    __wglewGetGenlockSourceI3D @5768 DATA
    __wglewGetMscRateOML @5769 DATA
    __wglewGetPbufferDCARB @5770 DATA
    __wglewGetPbufferDCEXT @5771 DATA
    __wglewGetPixelFormatAttribfvARB @5772 DATA
    __wglewGetPixelFormatAttribfvEXT @5773 DATA
    __wglewGetPixelFormatAttribivARB @5774 DATA
    __wglewGetPixelFormatAttribivEXT @5775 DATA
    __wglewGetSwapIntervalEXT @5776 DATA
    __wglewGetSyncValuesOML @5777 DATA
    __wglewGetVideoDeviceNV @5778 DATA
    __wglewGetVideoInfoNV @5779 DATA
    __wglewIsEnabledFrameLockI3D @5780 DATA
    __wglewIsEnabledGenlockI3D @5781 DATA
    __wglewJoinSwapGroupNV @5782 DATA
    __wglewLoadDisplayColorTableEXT @5783 DATA
    __wglewLockVideoCaptureDeviceNV @5784 DATA
    __wglewMakeAssociatedContextCurrentAMD @5785 DATA
    __wglewMakeContextCurrentARB @5786 DATA
    __wglewMakeContextCurrentEXT @5787 DATA
    __wglewQueryCurrentContextNV @5788 DATA
    __wglewQueryFrameCountNV @5789 DATA
    __wglewQueryFrameLockMasterI3D @5790 DATA
    __wglewQueryFrameTrackingI3D @5791 DATA
    __wglewQueryGenlockMaxSourceDelayI3D @5792 DATA
    __wglewQueryMaxSwapGroupsNV @5793 DATA
    __wglewQueryPbufferARB @5794 DATA
    __wglewQueryPbufferEXT @5795 DATA
    __wglewQuerySwapGroupNV @5796 DATA
    __wglewQueryVideoCaptureDeviceNV @5797 DATA
    __wglewReleaseImageBufferEventsI3D @5798 DATA
    __wglewReleasePbufferDCARB @5799 DATA
    __wglewReleasePbufferDCEXT @5800 DATA
    __wglewReleaseTexImageARB @5801 DATA
    __wglewReleaseVideoCaptureDeviceNV @5802 DATA
    __wglewReleaseVideoDeviceNV @5803 DATA
    __wglewReleaseVideoImageNV @5804 DATA
    __wglewResetFrameCountNV @5805 DATA
    __wglewRestoreBufferRegionARB @5806 DATA
    __wglewSaveBufferRegionARB @5807 DATA
    __wglewSendPbufferToVideoNV @5808 DATA
    __wglewSetDigitalVideoParametersI3D @5809 DATA
    __wglewSetGammaTableI3D @5810 DATA
    __wglewSetGammaTableParametersI3D @5811 DATA
    __wglewSetPbufferAttribARB @5812 DATA
    __wglewSetStereoEmitterState3DL @5813 DATA
    __wglewSwapBuffersMscOML @5814 DATA
    __wglewSwapIntervalEXT @5815 DATA
    __wglewSwapLayerBuffersMscOML @5816 DATA
    __wglewWaitForMscOML @5817 DATA
    __wglewWaitForSbcOML @5818 DATA
    __xl_f @5819 DATA
    _book_maptype1_quantvals @5820
    _book_unquantize @5821
    _float32_pack @5822
    _float32_unpack @5823
    _floor_P @5824 DATA
    _glfw @5825 DATA
    _glfwAllocGammaArrays @5826
    _glfwAllocJoystick @5827
    _glfwAllocMonitor @5828
    _glfwCenterCursorInContentArea @5829
    _glfwChooseFBConfig @5830
    _glfwChooseVideoMode @5831
    _glfwCompareVideoModes @5832
    _glfwConnectNull @5833
    _glfwConnectWin32 @5834
    _glfwCreateContextEGL @5835
    _glfwCreateContextOSMesa @5836
    _glfwCreateContextWGL @5837
    _glfwCreateCursorNull @5838
    _glfwCreateCursorWin32 @5839
    _glfwCreateStandardCursorNull @5840
    _glfwCreateStandardCursorWin32 @5841
    _glfwCreateUTF8FromWideStringWin32 @5842
    _glfwCreateWideStringFromUTF8Win32 @5843
    _glfwCreateWindowNull @5844
    _glfwCreateWindowSurfaceNull @5845
    _glfwCreateWindowSurfaceWin32 @5846
    _glfwCreateWindowWin32 @5847
    _glfwDefaultMappings @5848 DATA
    _glfwDestroyCursorNull @5849
    _glfwDestroyCursorWin32 @5850
    _glfwDestroyWindowNull @5851
    _glfwDestroyWindowWin32 @5852
    _glfwDetectJoystickConnectionWin32 @5853
    _glfwDetectJoystickDisconnectionWin32 @5854
    _glfwEncodeUTF8 @5855
    _glfwFocusWindowNull @5856
    _glfwFocusWindowWin32 @5857
    _glfwFramebufferTransparentNull @5858
    _glfwFramebufferTransparentWin32 @5859
    _glfwFreeGammaArrays @5860
    _glfwFreeJoystick @5861
    _glfwFreeMonitor @5862
    _glfwFreeMonitorNull @5863
    _glfwFreeMonitorWin32 @5864
    _glfwGetClipboardStringNull @5865
    _glfwGetClipboardStringWin32 @5866
    _glfwGetCursorPosNull @5867
    _glfwGetCursorPosWin32 @5868
    _glfwGetEGLNativeDisplayNull @5869
    _glfwGetEGLNativeDisplayWin32 @5870
    _glfwGetEGLNativeWindowNull @5871
    _glfwGetEGLNativeWindowWin32 @5872
    _glfwGetEGLPlatformNull @5873
    _glfwGetEGLPlatformWin32 @5874
    _glfwGetFramebufferSizeNull @5875
    _glfwGetFramebufferSizeWin32 @5876
    _glfwGetGammaRampNull @5877
    _glfwGetGammaRampWin32 @5878
    _glfwGetHMONITORContentScaleWin32 @5879
    _glfwGetKeyScancodeNull @5880
    _glfwGetKeyScancodeWin32 @5881
    _glfwGetMappingNameNull @5882
    _glfwGetMappingNameWin32 @5883
    _glfwGetMonitorContentScaleNull @5884
    _glfwGetMonitorContentScaleWin32 @5885
    _glfwGetMonitorPosNull @5886
    _glfwGetMonitorPosWin32 @5887
    _glfwGetMonitorWorkareaNull @5888
    _glfwGetMonitorWorkareaWin32 @5889
    _glfwGetPhysicalDevicePresentationSupportNull @5890
    _glfwGetPhysicalDevicePresentationSupportWin32 @5891
    _glfwGetRequiredInstanceExtensionsNull @5892
    _glfwGetRequiredInstanceExtensionsWin32 @5893
    _glfwGetScancodeNameNull @5894
    _glfwGetScancodeNameWin32 @5895
    _glfwGetVideoModeNull @5896
    _glfwGetVideoModeWin32 @5897
    _glfwGetVideoModesNull @5898
    _glfwGetVideoModesWin32 @5899
    _glfwGetVulkanResultString @5900
    _glfwGetWindowContentScaleNull @5901
    _glfwGetWindowContentScaleWin32 @5902
    _glfwGetWindowFrameSizeNull @5903
    _glfwGetWindowFrameSizeWin32 @5904
    _glfwGetWindowOpacityNull @5905
    _glfwGetWindowOpacityWin32 @5906
    _glfwGetWindowPosNull @5907
    _glfwGetWindowPosWin32 @5908
    _glfwGetWindowSizeNull @5909
    _glfwGetWindowSizeWin32 @5910
    _glfwHideWindowNull @5911
    _glfwHideWindowWin32 @5912
    _glfwIconifyWindowNull @5913
    _glfwIconifyWindowWin32 @5914
    _glfwInitEGL @5915
    _glfwInitGamepadMappings @5916
    _glfwInitJoysticksNull @5917
    _glfwInitJoysticksWin32 @5918
    _glfwInitNull @5919
    _glfwInitOSMesa @5920
    _glfwInitVulkan @5921
    _glfwInitWGL @5922
    _glfwInitWin32 @5923
    _glfwInputChar @5924
    _glfwInputCursorEnter @5925
    _glfwInputCursorPos @5926
    _glfwInputDrop @5927
    _glfwInputError @5928
    _glfwInputErrorWin32 @5929
    _glfwInputFramebufferSize @5930
    _glfwInputJoystick @5931
    _glfwInputJoystickAxis @5932
    _glfwInputJoystickButton @5933
    _glfwInputJoystickHat @5934
    _glfwInputKey @5935
    _glfwInputMonitor @5936
    _glfwInputMonitorWindow @5937
    _glfwInputMouseClick @5938
    _glfwInputScroll @5939
    _glfwInputWindowCloseRequest @5940
    _glfwInputWindowContentScale @5941
    _glfwInputWindowDamage @5942
    _glfwInputWindowFocus @5943
    _glfwInputWindowIconify @5944
    _glfwInputWindowMaximize @5945
    _glfwInputWindowMonitor @5946
    _glfwInputWindowPos @5947
    _glfwInputWindowSize @5948
    _glfwIsValidContextConfig @5949
    _glfwIsWindows10BuildOrGreaterWin32 @5950
    _glfwIsWindowsVersionOrGreaterWin32 @5951
    _glfwMaximizeWindowNull @5952
    _glfwMaximizeWindowWin32 @5953
    _glfwParseUriList @5954
    _glfwPlatformCreateMutex @5955
    _glfwPlatformCreateTls @5956
    _glfwPlatformDestroyMutex @5957
    _glfwPlatformDestroyTls @5958
    _glfwPlatformFreeModule @5959
    _glfwPlatformGetModuleSymbol @5960
    _glfwPlatformGetTimerFrequency @5961
    _glfwPlatformGetTimerValue @5962
    _glfwPlatformGetTls @5963
    _glfwPlatformInitTimer @5964
    _glfwPlatformLoadModule @5965
    _glfwPlatformLockMutex @5966
    _glfwPlatformSetTls @5967
    _glfwPlatformUnlockMutex @5968
    _glfwPollEventsNull @5969
    _glfwPollEventsWin32 @5970
    _glfwPollJoystickNull @5971
    _glfwPollJoystickWin32 @5972
    _glfwPollMonitorsNull @5973
    _glfwPollMonitorsWin32 @5974
    _glfwPostEmptyEventNull @5975
    _glfwPostEmptyEventWin32 @5976
    _glfwRawMouseMotionSupportedNull @5977
    _glfwRawMouseMotionSupportedWin32 @5978
    _glfwRefreshContextAttribs @5979
    _glfwRequestWindowAttentionNull @5980
    _glfwRequestWindowAttentionWin32 @5981
    _glfwRestoreVideoModeWin32 @5982
    _glfwRestoreWindowNull @5983
    _glfwRestoreWindowWin32 @5984
    _glfwSelectPlatform @5985
    _glfwSetClipboardStringNull @5986
    _glfwSetClipboardStringWin32 @5987
    _glfwSetCursorModeNull @5988
    _glfwSetCursorModeWin32 @5989
    _glfwSetCursorNull @5990
    _glfwSetCursorPosNull @5991
    _glfwSetCursorPosWin32 @5992
    _glfwSetCursorWin32 @5993
    _glfwSetGammaRampNull @5994
    _glfwSetGammaRampWin32 @5995
    _glfwSetRawMouseMotionNull @5996
    _glfwSetRawMouseMotionWin32 @5997
    _glfwSetVideoModeWin32 @5998
    _glfwSetWindowAspectRatioNull @5999
    _glfwSetWindowAspectRatioWin32 @6000
    _glfwSetWindowDecoratedNull @6001
    _glfwSetWindowDecoratedWin32 @6002
    _glfwSetWindowFloatingNull @6003
    _glfwSetWindowFloatingWin32 @6004
    _glfwSetWindowIconNull @6005
    _glfwSetWindowIconWin32 @6006
    _glfwSetWindowMonitorNull @6007
    _glfwSetWindowMonitorWin32 @6008
    _glfwSetWindowMousePassthroughNull @6009
    _glfwSetWindowMousePassthroughWin32 @6010
    _glfwSetWindowOpacityNull @6011
    _glfwSetWindowOpacityWin32 @6012
    _glfwSetWindowPosNull @6013
    _glfwSetWindowPosWin32 @6014
    _glfwSetWindowResizableNull @6015
    _glfwSetWindowResizableWin32 @6016
    _glfwSetWindowSizeLimitsNull @6017
    _glfwSetWindowSizeLimitsWin32 @6018
    _glfwSetWindowSizeNull @6019
    _glfwSetWindowSizeWin32 @6020
    _glfwSetWindowTitleNull @6021
    _glfwSetWindowTitleWin32 @6022
    _glfwShowWindowNull @6023
    _glfwShowWindowWin32 @6024
    _glfwSplitBPP @6025
    _glfwStringInExtensionString @6026
    _glfwTerminateEGL @6027
    _glfwTerminateJoysticksNull @6028
    _glfwTerminateJoysticksWin32 @6029
    _glfwTerminateNull @6030
    _glfwTerminateOSMesa @6031
    _glfwTerminateVulkan @6032
    _glfwTerminateWGL @6033
    _glfwTerminateWin32 @6034
    _glfwUpdateGamepadGUIDNull @6035
    _glfwUpdateGamepadGUIDWin32 @6036
    _glfwUpdateKeyNamesWin32 @6037
    _glfwWaitEventsNull @6038
    _glfwWaitEventsTimeoutNull @6039
    _glfwWaitEventsTimeoutWin32 @6040
    _glfwWaitEventsWin32 @6041
    _glfwWindowFocusedNull @6042
    _glfwWindowFocusedWin32 @6043
    _glfwWindowHoveredNull @6044
    _glfwWindowHoveredWin32 @6045
    _glfwWindowIconifiedNull @6046
    _glfwWindowIconifiedWin32 @6047
    _glfwWindowMaximizedNull @6048
    _glfwWindowMaximizedWin32 @6049
    _glfwWindowVisibleNull @6050
    _glfwWindowVisibleWin32 @6051
    _glfw_calloc @6052
    _glfw_free @6053
    _glfw_max @6054
    _glfw_min @6055
    _glfw_realloc @6056
    _glfw_strdup @6057
    _make_words @6058
    _mapping_P @6059 DATA
    _pthread_cleanup_dest @6060
    _pthread_get_state @6061
    _pthread_invoke_cancel @6062
    _pthread_key_dest @6063 DATA
    _pthread_rel_time_in_ms @6064
    _pthread_set_state @6065
    _pthread_setnobreak @6066
    _pthread_time_in_ms @6067
    _pthread_time_in_ms_from_timespec @6068
    _pthread_tryjoin @6069
    _pthread_wait_for_multiple_objects @6070
    _pthread_wait_for_single_object @6071
    _residue_P @6072 DATA
    _ve_envelope_clear @6073
    _ve_envelope_init @6074
    _ve_envelope_mark @6075
    _ve_envelope_search @6076
    _ve_envelope_shift @6077
    _vi_gpsy_free @6078
    _vi_psy_free @6079
    _vorbis_apply_window @6080
    _vorbis_block_alloc @6081
    _vorbis_block_ripcord @6082
    _vorbis_window_get @6083
    _vp_ampmax_decay @6084
    _vp_couple_quantize_normalize @6085
    _vp_global_free @6086
    _vp_global_look @6087
    _vp_noisemask @6088
    _vp_offset_and_mix @6089
    _vp_psy_clear @6090
    _vp_psy_init @6091
    _vp_tonemask @6092
    af_adlm_dflt_style_class @6093 DATA
    af_adlm_nonbase_uniranges @6094 DATA
    af_adlm_script_class @6095 DATA
    af_adlm_uniranges @6096 DATA
    af_arab_dflt_style_class @6097 DATA
    af_arab_nonbase_uniranges @6098 DATA
    af_arab_script_class @6099 DATA
    af_arab_uniranges @6100 DATA
    af_armn_dflt_style_class @6101 DATA
    af_armn_nonbase_uniranges @6102 DATA
    af_armn_script_class @6103 DATA
    af_armn_uniranges @6104 DATA
    af_autofitter_interface @6105 DATA
    af_avst_dflt_style_class @6106 DATA
    af_avst_nonbase_uniranges @6107 DATA
    af_avst_script_class @6108 DATA
    af_avst_uniranges @6109 DATA
    af_bamu_dflt_style_class @6110 DATA
    af_bamu_nonbase_uniranges @6111 DATA
    af_bamu_script_class @6112 DATA
    af_bamu_uniranges @6113 DATA
    af_beng_dflt_style_class @6114 DATA
    af_beng_nonbase_uniranges @6115 DATA
    af_beng_script_class @6116 DATA
    af_beng_uniranges @6117 DATA
    af_blue_strings @6118 DATA
    af_blue_stringsets @6119 DATA
    af_buhd_dflt_style_class @6120 DATA
    af_buhd_nonbase_uniranges @6121 DATA
    af_buhd_script_class @6122 DATA
    af_buhd_uniranges @6123 DATA
    af_cakm_dflt_style_class @6124 DATA
    af_cakm_nonbase_uniranges @6125 DATA
    af_cakm_script_class @6126 DATA
    af_cakm_uniranges @6127 DATA
    af_cans_dflt_style_class @6128 DATA
    af_cans_nonbase_uniranges @6129 DATA
    af_cans_script_class @6130 DATA
    af_cans_uniranges @6131 DATA
    af_cari_dflt_style_class @6132 DATA
    af_cari_nonbase_uniranges @6133 DATA
    af_cari_script_class @6134 DATA
    af_cari_uniranges @6135 DATA
    af_cher_dflt_style_class @6136 DATA
    af_cher_nonbase_uniranges @6137 DATA
    af_cher_script_class @6138 DATA
    af_cher_uniranges @6139 DATA
    af_cjk_writing_system_class @6140 DATA
    af_copt_dflt_style_class @6141 DATA
    af_copt_nonbase_uniranges @6142 DATA
    af_copt_script_class @6143 DATA
    af_copt_uniranges @6144 DATA
    af_cprt_dflt_style_class @6145 DATA
    af_cprt_nonbase_uniranges @6146 DATA
    af_cprt_script_class @6147 DATA
    af_cprt_uniranges @6148 DATA
    af_cyrl_c2cp_style_class @6149 DATA
    af_cyrl_c2sc_style_class @6150 DATA
    af_cyrl_dflt_style_class @6151 DATA
    af_cyrl_nonbase_uniranges @6152 DATA
    af_cyrl_ordn_style_class @6153 DATA
    af_cyrl_pcap_style_class @6154 DATA
    af_cyrl_script_class @6155 DATA
    af_cyrl_sinf_style_class @6156 DATA
    af_cyrl_smcp_style_class @6157 DATA
    af_cyrl_subs_style_class @6158 DATA
    af_cyrl_sups_style_class @6159 DATA
    af_cyrl_titl_style_class @6160 DATA
    af_cyrl_uniranges @6161 DATA
    af_deva_dflt_style_class @6162 DATA
    af_deva_nonbase_uniranges @6163 DATA
    af_deva_script_class @6164 DATA
    af_deva_uniranges @6165 DATA
    af_dsrt_dflt_style_class @6166 DATA
    af_dsrt_nonbase_uniranges @6167 DATA
    af_dsrt_script_class @6168 DATA
    af_dsrt_uniranges @6169 DATA
    af_dummy_writing_system_class @6170 DATA
    af_ethi_dflt_style_class @6171 DATA
    af_ethi_nonbase_uniranges @6172 DATA
    af_ethi_script_class @6173 DATA
    af_ethi_uniranges @6174 DATA
    af_geok_dflt_style_class @6175 DATA
    af_geok_nonbase_uniranges @6176 DATA
    af_geok_script_class @6177 DATA
    af_geok_uniranges @6178 DATA
    af_geor_dflt_style_class @6179 DATA
    af_geor_nonbase_uniranges @6180 DATA
    af_geor_script_class @6181 DATA
    af_geor_uniranges @6182 DATA
    af_glag_dflt_style_class @6183 DATA
    af_glag_nonbase_uniranges @6184 DATA
    af_glag_script_class @6185 DATA
    af_glag_uniranges @6186 DATA
    af_goth_dflt_style_class @6187 DATA
    af_goth_nonbase_uniranges @6188 DATA
    af_goth_script_class @6189 DATA
    af_goth_uniranges @6190 DATA
    af_grek_c2cp_style_class @6191 DATA
    af_grek_c2sc_style_class @6192 DATA
    af_grek_dflt_style_class @6193 DATA
    af_grek_nonbase_uniranges @6194 DATA
    af_grek_ordn_style_class @6195 DATA
    af_grek_pcap_style_class @6196 DATA
    af_grek_script_class @6197 DATA
    af_grek_sinf_style_class @6198 DATA
    af_grek_smcp_style_class @6199 DATA
    af_grek_subs_style_class @6200 DATA
    af_grek_sups_style_class @6201 DATA
    af_grek_titl_style_class @6202 DATA
    af_grek_uniranges @6203 DATA
    af_gujr_dflt_style_class @6204 DATA
    af_gujr_nonbase_uniranges @6205 DATA
    af_gujr_script_class @6206 DATA
    af_gujr_uniranges @6207 DATA
    af_guru_dflt_style_class @6208 DATA
    af_guru_nonbase_uniranges @6209 DATA
    af_guru_script_class @6210 DATA
    af_guru_uniranges @6211 DATA
    af_hani_dflt_style_class @6212 DATA
    af_hani_nonbase_uniranges @6213 DATA
    af_hani_script_class @6214 DATA
    af_hani_uniranges @6215 DATA
    af_hebr_dflt_style_class @6216 DATA
    af_hebr_nonbase_uniranges @6217 DATA
    af_hebr_script_class @6218 DATA
    af_hebr_uniranges @6219 DATA
    af_indic_writing_system_class @6220 DATA
    af_kali_dflt_style_class @6221 DATA
    af_kali_nonbase_uniranges @6222 DATA
    af_kali_script_class @6223 DATA
    af_kali_uniranges @6224 DATA
    af_khmr_dflt_style_class @6225 DATA
    af_khmr_nonbase_uniranges @6226 DATA
    af_khmr_script_class @6227 DATA
    af_khmr_uniranges @6228 DATA
    af_khms_dflt_style_class @6229 DATA
    af_khms_nonbase_uniranges @6230 DATA
    af_khms_script_class @6231 DATA
    af_khms_uniranges @6232 DATA
    af_knda_dflt_style_class @6233 DATA
    af_knda_nonbase_uniranges @6234 DATA
    af_knda_script_class @6235 DATA
    af_knda_uniranges @6236 DATA
    af_lao_dflt_style_class @6237 DATA
    af_lao_nonbase_uniranges @6238 DATA
    af_lao_script_class @6239 DATA
    af_lao_uniranges @6240 DATA
    af_latb_dflt_style_class @6241 DATA
    af_latb_nonbase_uniranges @6242 DATA
    af_latb_script_class @6243 DATA
    af_latb_uniranges @6244 DATA
    af_latin_writing_system_class @6245 DATA
    af_latn_c2cp_style_class @6246 DATA
    af_latn_c2sc_style_class @6247 DATA
    af_latn_dflt_style_class @6248 DATA
    af_latn_nonbase_uniranges @6249 DATA
    af_latn_ordn_style_class @6250 DATA
    af_latn_pcap_style_class @6251 DATA
    af_latn_script_class @6252 DATA
    af_latn_sinf_style_class @6253 DATA
    af_latn_smcp_style_class @6254 DATA
    af_latn_subs_style_class @6255 DATA
    af_latn_sups_style_class @6256 DATA
    af_latn_titl_style_class @6257 DATA
    af_latn_uniranges @6258 DATA
    af_latp_dflt_style_class @6259 DATA
    af_latp_nonbase_uniranges @6260 DATA
    af_latp_script_class @6261 DATA
    af_latp_uniranges @6262 DATA
    af_limb_dflt_style_class @6263 DATA
    af_limb_nonbase_uniranges @6264 DATA
    af_limb_script_class @6265 DATA
    af_limb_uniranges @6266 DATA
    af_lisu_dflt_style_class @6267 DATA
    af_lisu_nonbase_uniranges @6268 DATA
    af_lisu_script_class @6269 DATA
    af_lisu_uniranges @6270 DATA
    af_mlym_dflt_style_class @6271 DATA
    af_mlym_nonbase_uniranges @6272 DATA
    af_mlym_script_class @6273 DATA
    af_mlym_uniranges @6274 DATA
    af_mymr_dflt_style_class @6275 DATA
    af_mymr_nonbase_uniranges @6276 DATA
    af_mymr_script_class @6277 DATA
    af_mymr_uniranges @6278 DATA
    af_nkoo_dflt_style_class @6279 DATA
    af_nkoo_nonbase_uniranges @6280 DATA
    af_nkoo_script_class @6281 DATA
    af_nkoo_uniranges @6282 DATA
    af_none_dflt_style_class @6283 DATA
    af_none_nonbase_uniranges @6284 DATA
    af_none_script_class @6285 DATA
    af_none_uniranges @6286 DATA
    af_olck_dflt_style_class @6287 DATA
    af_olck_nonbase_uniranges @6288 DATA
    af_olck_script_class @6289 DATA
    af_olck_uniranges @6290 DATA
    af_orkh_dflt_style_class @6291 DATA
    af_orkh_nonbase_uniranges @6292 DATA
    af_orkh_script_class @6293 DATA
    af_orkh_uniranges @6294 DATA
    af_orya_dflt_style_class @6295 DATA
    af_orya_nonbase_uniranges @6296 DATA
    af_orya_script_class @6297 DATA
    af_orya_uniranges @6298 DATA
    af_osge_dflt_style_class @6299 DATA
    af_osge_nonbase_uniranges @6300 DATA
    af_osge_script_class @6301 DATA
    af_osge_uniranges @6302 DATA
    af_osma_dflt_style_class @6303 DATA
    af_osma_nonbase_uniranges @6304 DATA
    af_osma_script_class @6305 DATA
    af_osma_uniranges @6306 DATA
    af_saur_dflt_style_class @6307 DATA
    af_saur_nonbase_uniranges @6308 DATA
    af_saur_script_class @6309 DATA
    af_saur_uniranges @6310 DATA
    af_script_classes @6311 DATA
    af_shaper_buf_create @6312
    af_shaper_buf_destroy @6313
    af_shaper_get_cluster @6314
    af_shaper_get_coverage @6315
    af_shaper_get_elem @6316
    af_shaw_dflt_style_class @6317 DATA
    af_shaw_nonbase_uniranges @6318 DATA
    af_shaw_script_class @6319 DATA
    af_shaw_uniranges @6320 DATA
    af_sinh_dflt_style_class @6321 DATA
    af_sinh_nonbase_uniranges @6322 DATA
    af_sinh_script_class @6323 DATA
    af_sinh_uniranges @6324 DATA
    af_style_classes @6325 DATA
    af_sund_dflt_style_class @6326 DATA
    af_sund_nonbase_uniranges @6327 DATA
    af_sund_script_class @6328 DATA
    af_sund_uniranges @6329 DATA
    af_sylo_dflt_style_class @6330 DATA
    af_sylo_nonbase_uniranges @6331 DATA
    af_sylo_script_class @6332 DATA
    af_sylo_uniranges @6333 DATA
    af_taml_dflt_style_class @6334 DATA
    af_taml_nonbase_uniranges @6335 DATA
    af_taml_script_class @6336 DATA
    af_taml_uniranges @6337 DATA
    af_tavt_dflt_style_class @6338 DATA
    af_tavt_nonbase_uniranges @6339 DATA
    af_tavt_script_class @6340 DATA
    af_tavt_uniranges @6341 DATA
    af_telu_dflt_style_class @6342 DATA
    af_telu_nonbase_uniranges @6343 DATA
    af_telu_script_class @6344 DATA
    af_telu_uniranges @6345 DATA
    af_tfng_dflt_style_class @6346 DATA
    af_tfng_nonbase_uniranges @6347 DATA
    af_tfng_script_class @6348 DATA
    af_tfng_uniranges @6349 DATA
    af_thai_dflt_style_class @6350 DATA
    af_thai_nonbase_uniranges @6351 DATA
    af_thai_script_class @6352 DATA
    af_thai_uniranges @6353 DATA
    af_tibt_dflt_style_class @6354 DATA
    af_tibt_nonbase_uniranges @6355 DATA
    af_tibt_script_class @6356 DATA
    af_tibt_uniranges @6357 DATA
    af_vaii_dflt_style_class @6358 DATA
    af_vaii_nonbase_uniranges @6359 DATA
    af_vaii_script_class @6360 DATA
    af_vaii_uniranges @6361 DATA
    af_writing_system_classes @6362 DATA
    afm_parser_funcs @6363 DATA
    autofit_module_class @6364 DATA
    bdf_driver_class @6365 DATA
    cff_builder_funcs @6366 DATA
    cff_cmap_encoding_class_rec @6367 DATA
    cff_cmap_unicode_class_rec @6368 DATA
    cff_decoder_funcs @6369 DATA
    cff_driver_class @6370 DATA
    chmod_utf8 @6371
    cond_print @6372
    cond_print_set @6373
    do_sema_b_wait_intern @6374
    drft_backward @6375
    drft_clear @6376
    drft_forward @6377
    drft_init @6378
    floor0_exportbundle @6379 DATA
    floor1_encode @6380
    floor1_exportbundle @6381 DATA
    floor1_fit @6382
    floor1_interpolate_fit @6383
    fopen_utf8 @6384
    fprintf_utf8 @6385
    ft_adobe_glyph_list @6386 DATA
    ft_bitmap_glyph_class @6387 DATA
    ft_corner_is_flat @6388
    ft_corner_orientation @6389
    ft_debug_init @6390
    ft_glyphslot_alloc_bitmap @6391
    ft_glyphslot_free_bitmap @6392
    ft_glyphslot_preset_bitmap @6393
    ft_glyphslot_set_bitmap @6394
    ft_grays_raster @6395 DATA
    ft_hash_num_init @6396
    ft_hash_num_insert @6397
    ft_hash_num_lookup @6398
    ft_hash_str_free @6399
    ft_hash_str_init @6400
    ft_hash_str_insert @6401
    ft_hash_str_lookup @6402
    ft_lcd_padding @6403
    ft_lzwstate_done @6404
    ft_lzwstate_init @6405
    ft_lzwstate_io @6406
    ft_lzwstate_reset @6407
    ft_mac_names @6408 DATA
    ft_mem_alloc @6409
    ft_mem_dup @6410
    ft_mem_free @6411
    ft_mem_qalloc @6412
    ft_mem_qrealloc @6413
    ft_mem_realloc @6414
    ft_mem_strcpyn @6415
    ft_mem_strdup @6416
    ft_module_get_service @6417
    ft_outline_glyph_class @6418 DATA
    ft_property_string_set @6419
    ft_raster1_renderer_class @6420 DATA
    ft_service_list_lookup @6421
    ft_sid_names @6422 DATA
    ft_smooth_lcd_renderer_class @6423 DATA
    ft_smooth_lcdv_renderer_class @6424 DATA
    ft_smooth_renderer_class @6425 DATA
    ft_standard_glyph_names @6426 DATA
    ft_standard_raster @6427 DATA
    ft_synthesize_vertical_metrics @6428
    ft_validator_error @6429
    ft_validator_init @6430
    ft_validator_run @6431
    get_utf8_argv @6432
    glewExperimental @6433 DATA
    glewGetErrorString @6434
    glewGetExtension @6435
    glewGetString @6436
    glewInit @6437
    glewIsSupported @6438
    glfwCreateCursor @6439
    glfwCreateStandardCursor @6440
    glfwCreateWindow @6441
    glfwCreateWindowSurface @6442
    glfwDefaultWindowHints @6443
    glfwDestroyCursor @6444
    glfwDestroyWindow @6445
    glfwExtensionSupported @6446
    glfwFocusWindow @6447
    glfwGetClipboardString @6448
    glfwGetCurrentContext @6449
    glfwGetCursorPos @6450
    glfwGetEGLContext @6451
    glfwGetEGLDisplay @6452
    glfwGetEGLSurface @6453
    glfwGetError @6454
    glfwGetFramebufferSize @6455
    glfwGetGamepadName @6456
    glfwGetGamepadState @6457
    glfwGetGammaRamp @6458
    glfwGetInputMode @6459
    glfwGetInstanceProcAddress @6460
    glfwGetJoystickAxes @6461
    glfwGetJoystickButtons @6462
    glfwGetJoystickGUID @6463
    glfwGetJoystickHats @6464
    glfwGetJoystickName @6465
    glfwGetJoystickUserPointer @6466
    glfwGetKey @6467
    glfwGetKeyName @6468
    glfwGetKeyScancode @6469
    glfwGetMonitorContentScale @6470
    glfwGetMonitorName @6471
    glfwGetMonitorPhysicalSize @6472
    glfwGetMonitorPos @6473
    glfwGetMonitorUserPointer @6474
    glfwGetMonitorWorkarea @6475
    glfwGetMonitors @6476
    glfwGetMouseButton @6477
    glfwGetOSMesaColorBuffer @6478
    glfwGetOSMesaContext @6479
    glfwGetOSMesaDepthBuffer @6480
    glfwGetPhysicalDevicePresentationSupport @6481
    glfwGetPlatform @6482
    glfwGetPrimaryMonitor @6483
    glfwGetProcAddress @6484
    glfwGetRequiredInstanceExtensions @6485
    glfwGetTime @6486
    glfwGetTimerFrequency @6487
    glfwGetTimerValue @6488
    glfwGetVersion @6489
    glfwGetVersionString @6490
    glfwGetVideoMode @6491
    glfwGetVideoModes @6492
    glfwGetWGLContext @6493
    glfwGetWin32Adapter @6494
    glfwGetWin32Monitor @6495
    glfwGetWin32Window @6496
    glfwGetWindowAttrib @6497
    glfwGetWindowContentScale @6498
    glfwGetWindowFrameSize @6499
    glfwGetWindowMonitor @6500
    glfwGetWindowOpacity @6501
    glfwGetWindowPos @6502
    glfwGetWindowSize @6503
    glfwGetWindowTitle @6504
    glfwGetWindowUserPointer @6505
    glfwHideWindow @6506
    glfwIconifyWindow @6507
    glfwInit @6508
    glfwInitAllocator @6509
    glfwInitHint @6510
    glfwInitVulkanLoader @6511
    glfwJoystickIsGamepad @6512
    glfwJoystickPresent @6513
    glfwMakeContextCurrent @6514
    glfwMaximizeWindow @6515
    glfwPlatformSupported @6516
    glfwPollEvents @6517
    glfwPostEmptyEvent @6518
    glfwRawMouseMotionSupported @6519
    glfwRequestWindowAttention @6520
    glfwRestoreWindow @6521
    glfwSetCharCallback @6522
    glfwSetCharModsCallback @6523
    glfwSetClipboardString @6524
    glfwSetCursor @6525
    glfwSetCursorEnterCallback @6526
    glfwSetCursorPos @6527
    glfwSetCursorPosCallback @6528
    glfwSetDropCallback @6529
    glfwSetErrorCallback @6530
    glfwSetFramebufferSizeCallback @6531
    glfwSetGamma @6532
    glfwSetGammaRamp @6533
    glfwSetInputMode @6534
    glfwSetJoystickCallback @6535
    glfwSetJoystickUserPointer @6536
    glfwSetKeyCallback @6537
    glfwSetMonitorCallback @6538
    glfwSetMonitorUserPointer @6539
    glfwSetMouseButtonCallback @6540
    glfwSetScrollCallback @6541
    glfwSetTime @6542
    glfwSetWindowAspectRatio @6543
    glfwSetWindowAttrib @6544
    glfwSetWindowCloseCallback @6545
    glfwSetWindowContentScaleCallback @6546
    glfwSetWindowFocusCallback @6547
    glfwSetWindowIcon @6548
    glfwSetWindowIconifyCallback @6549
    glfwSetWindowMaximizeCallback @6550
    glfwSetWindowMonitor @6551
    glfwSetWindowOpacity @6552
    glfwSetWindowPos @6553
    glfwSetWindowPosCallback @6554
    glfwSetWindowRefreshCallback @6555
    glfwSetWindowShouldClose @6556
    glfwSetWindowSize @6557
    glfwSetWindowSizeCallback @6558
    glfwSetWindowSizeLimits @6559
    glfwSetWindowTitle @6560
    glfwSetWindowUserPointer @6561
    glfwShowWindow @6562
    glfwSwapBuffers @6563
    glfwSwapInterval @6564
    glfwTerminate @6565
    glfwUpdateGamepadMappings @6566
    glfwVulkanSupported @6567
    glfwWaitEvents @6568
    glfwWaitEventsTimeout @6569
    glfwWindowHint @6570
    glfwWindowHintString @6571
    glfwWindowShouldClose @6572
    mapping0_exportbundle @6573 DATA
    mdct_backward @6574
    mdct_clear @6575
    mdct_forward @6576
    mdct_init @6577
    mp3dec_decode_frame @6578
    mp3dec_detect_buf @6579
    mp3dec_detect_cb @6580
    mp3dec_ex_close @6581
    mp3dec_ex_open_buf @6582
    mp3dec_ex_open_cb @6583
    mp3dec_ex_read @6584
    mp3dec_ex_read_frame @6585
    mp3dec_ex_seek @6586
    mp3dec_init @6587
    mp3dec_iterate_buf @6588
    mp3dec_iterate_cb @6589
    mp3dec_load_buf @6590
    mp3dec_load_cb @6591
    ogg_packet_clear @6592
    ogg_page_bos @6593
    ogg_page_checksum_set @6594
    ogg_page_continued @6595
    ogg_page_eos @6596
    ogg_page_granulepos @6597
    ogg_page_packets @6598
    ogg_page_pageno @6599
    ogg_page_serialno @6600
    ogg_page_version @6601
    ogg_stream_check @6602
    ogg_stream_clear @6603
    ogg_stream_destroy @6604
    ogg_stream_eos @6605
    ogg_stream_flush @6606
    ogg_stream_flush_fill @6607
    ogg_stream_init @6608
    ogg_stream_iovecin @6609
    ogg_stream_packetin @6610
    ogg_stream_packetout @6611
    ogg_stream_packetpeek @6612
    ogg_stream_pagein @6613
    ogg_stream_pageout @6614
    ogg_stream_pageout_fill @6615
    ogg_stream_reset @6616
    ogg_stream_reset_serialno @6617
    ogg_sync_buffer @6618
    ogg_sync_check @6619
    ogg_sync_clear @6620
    ogg_sync_destroy @6621
    ogg_sync_init @6622
    ogg_sync_pageout @6623
    ogg_sync_pageseek @6624
    ogg_sync_reset @6625
    ogg_sync_wrote @6626
    oggpackB_adv @6627
    oggpackB_adv1 @6628
    oggpackB_bits @6629
    oggpackB_bytes @6630
    oggpackB_get_buffer @6631
    oggpackB_look @6632
    oggpackB_look1 @6633
    oggpackB_read @6634
    oggpackB_read1 @6635
    oggpackB_readinit @6636
    oggpackB_reset @6637
    oggpackB_write @6638
    oggpackB_writealign @6639
    oggpackB_writecheck @6640
    oggpackB_writeclear @6641
    oggpackB_writecopy @6642
    oggpackB_writeinit @6643
    oggpackB_writetrunc @6644
    oggpack_adv @6645
    oggpack_adv1 @6646
    oggpack_bits @6647
    oggpack_bytes @6648
    oggpack_get_buffer @6649
    oggpack_look @6650
    oggpack_look1 @6651
    oggpack_read @6652
    oggpack_read1 @6653
    oggpack_readinit @6654
    oggpack_reset @6655
    oggpack_write @6656
    oggpack_writealign @6657
    oggpack_writecheck @6658
    oggpack_writeclear @6659
    oggpack_writecopy @6660
    oggpack_writeinit @6661
    oggpack_writetrunc @6662
    ov_bitrate @6663
    ov_bitrate_instant @6664
    ov_clear @6665
    ov_comment @6666
    ov_crosslap @6667
    ov_fopen @6668
    ov_halfrate @6669
    ov_halfrate_p @6670
    ov_ilog @6671
    ov_info @6672
    ov_open @6673
    ov_open_callbacks @6674
    ov_pcm_seek @6675
    ov_pcm_seek_lap @6676
    ov_pcm_seek_page @6677
    ov_pcm_seek_page_lap @6678
    ov_pcm_tell @6679
    ov_pcm_total @6680
    ov_raw_seek @6681
    ov_raw_seek_lap @6682
    ov_raw_tell @6683
    ov_raw_total @6684
    ov_read @6685
    ov_read_filter @6686
    ov_read_float @6687
    ov_seekable @6688
    ov_serialnumber @6689
    ov_streams @6690
    ov_test @6691
    ov_test_callbacks @6692
    ov_test_open @6693
    ov_time_seek @6694
    ov_time_seek_lap @6695
    ov_time_seek_page @6696
    ov_time_seek_page_lap @6697
    ov_time_tell @6698
    ov_time_total @6699
    pcf_driver_class @6700 DATA
    pfr_cmap_class_rec @6701 DATA
    pfr_driver_class @6702 DATA
    printf_utf8 @6703
    ps_builder_funcs @6704 DATA
    ps_hints_apply @6705
    ps_parser_funcs @6706 DATA
    ps_property_get @6707
    ps_property_set @6708
    ps_table_funcs @6709 DATA
    psaux_module_class @6710 DATA
    pshinter_module_class @6711 DATA
    psnames_module_class @6712 DATA
    pthread_attr_destroy @6713
    pthread_attr_getdetachstate @6714
    pthread_attr_getinheritsched @6715
    pthread_attr_getschedparam @6716
    pthread_attr_getschedpolicy @6717
    pthread_attr_getscope @6718
    pthread_attr_getstack @6719
    pthread_attr_getstackaddr @6720
    pthread_attr_getstacksize @6721
    pthread_attr_init @6722
    pthread_attr_setdetachstate @6723
    pthread_attr_setinheritsched @6724
    pthread_attr_setschedparam @6725
    pthread_attr_setschedpolicy @6726
    pthread_attr_setscope @6727
    pthread_attr_setstack @6728
    pthread_attr_setstackaddr @6729
    pthread_attr_setstacksize @6730
    pthread_cancel @6731
    pthread_cond_broadcast @6732
    pthread_cond_destroy @6733
    pthread_cond_init @6734
    pthread_cond_signal @6735
    pthread_cond_timedwait @6736
    pthread_cond_timedwait_relative_np @6737
    pthread_cond_wait @6738
    pthread_condattr_destroy @6739
    pthread_condattr_getclock @6740
    pthread_condattr_getpshared @6741
    pthread_condattr_init @6742
    pthread_condattr_setclock @6743
    pthread_condattr_setpshared @6744
    pthread_create @6745
    pthread_create_wrapper @6746
    pthread_delay_np @6747
    pthread_delay_np_ms @6748
    pthread_detach @6749
    pthread_equal @6750
    pthread_exit @6751
    pthread_get_concurrency @6752
    pthread_getclean @6753
    pthread_getconcurrency @6754
    pthread_getevent @6755
    pthread_gethandle @6756
    pthread_getname_np @6757
    pthread_getschedparam @6758
    pthread_getspecific @6759
    pthread_join @6760
    pthread_key_create @6761
    pthread_key_delete @6762
    pthread_kill @6763
    pthread_mutex_destroy @6764
    pthread_mutex_init @6765
    pthread_mutex_lock @6766
    pthread_mutex_timedlock @6767
    pthread_mutex_trylock @6768
    pthread_mutex_unlock @6769
    pthread_mutexattr_destroy @6770
    pthread_mutexattr_getprioceiling @6771
    pthread_mutexattr_getprotocol @6772
    pthread_mutexattr_getpshared @6773
    pthread_mutexattr_gettype @6774
    pthread_mutexattr_init @6775
    pthread_mutexattr_setprioceiling @6776
    pthread_mutexattr_setprotocol @6777
    pthread_mutexattr_setpshared @6778
    pthread_mutexattr_settype @6779
    pthread_num_processors_np @6780
    pthread_once @6781
    pthread_rwlock_destroy @6782
    pthread_rwlock_init @6783
    pthread_rwlock_rdlock @6784
    pthread_rwlock_timedrdlock @6785
    pthread_rwlock_timedwrlock @6786
    pthread_rwlock_tryrdlock @6787
    pthread_rwlock_trywrlock @6788
    pthread_rwlock_unlock @6789
    pthread_rwlock_wrlock @6790
    pthread_rwlockattr_destroy @6791
    pthread_rwlockattr_getpshared @6792
    pthread_rwlockattr_init @6793
    pthread_rwlockattr_setpshared @6794
    pthread_self @6795
    pthread_set_concurrency @6796
    pthread_set_num_processors_np @6797
    pthread_setcancelstate @6798
    pthread_setcanceltype @6799
    pthread_setconcurrency @6800
    pthread_setname_np @6801
    pthread_setschedparam @6802
    pthread_setspecific @6803
    pthread_spin_destroy @6804
    pthread_spin_init @6805
    pthread_spin_lock @6806
    pthread_spin_trylock @6807
    pthread_spin_unlock @6808
    pthread_testcancel @6809
    pthread_timechange_handler_np @6810
    pthread_tls_init @6811
    rename_utf8 @6812
    res0_free_info @6813
    res0_free_look @6814
    res0_inverse @6815
    res0_look @6816
    res0_pack @6817
    res0_unpack @6818
    res1_class @6819
    res1_forward @6820
    res1_inverse @6821
    res2_class @6822
    res2_forward @6823
    res2_inverse @6824
    residue0_exportbundle @6825 DATA
    residue1_exportbundle @6826 DATA
    residue2_exportbundle @6827 DATA
    rwl_print @6828
    rwl_print_set @6829
    safe_malloc_mul_2op_p @6830
    sched_get_priority_max @6831
    sched_get_priority_min @6832
    sched_getscheduler @6833
    sched_setscheduler @6834
    sched_yield @6835
    sfnt_module_class @6836 DATA
    simple_ogg_page__clear @6837
    simple_ogg_page__get_at @6838
    simple_ogg_page__init @6839
    simple_ogg_page__set_at @6840
    stat64_utf8 @6841
    stbi_convert_iphone_png_to_rgb @6842
    stbi_convert_iphone_png_to_rgb_thread @6843
    stbi_failure_reason @6844
    stbi_hdr_to_ldr_gamma @6845
    stbi_hdr_to_ldr_scale @6846
    stbi_image_free @6847
    stbi_info @6848
    stbi_info_from_callbacks @6849
    stbi_info_from_file @6850
    stbi_info_from_memory @6851
    stbi_is_16_bit @6852
    stbi_is_16_bit_from_callbacks @6853
    stbi_is_16_bit_from_file @6854
    stbi_is_16_bit_from_memory @6855
    stbi_is_hdr @6856
    stbi_is_hdr_from_callbacks @6857
    stbi_is_hdr_from_file @6858
    stbi_is_hdr_from_memory @6859
    stbi_ldr_to_hdr_gamma @6860
    stbi_ldr_to_hdr_scale @6861
    stbi_load @6862
    stbi_load_16 @6863
    stbi_load_16_from_callbacks @6864
    stbi_load_16_from_memory @6865
    stbi_load_from_callbacks @6866
    stbi_load_from_file @6867
    stbi_load_from_file_16 @6868
    stbi_load_from_memory @6869
    stbi_load_gif_from_memory @6870
    stbi_loadf @6871
    stbi_loadf_from_callbacks @6872
    stbi_loadf_from_file @6873
    stbi_loadf_from_memory @6874
    stbi_set_flip_vertically_on_load @6875
    stbi_set_flip_vertically_on_load_thread @6876
    stbi_set_unpremultiply_on_load @6877
    stbi_zlib_decode_buffer @6878
    stbi_zlib_decode_malloc @6879
    stbi_zlib_decode_malloc_guesssize @6880
    stbi_zlib_decode_malloc_guesssize_headerflag @6881
    stbi_zlib_decode_noheader_buffer @6882
    stbi_zlib_decode_noheader_malloc @6883
    strlen_utf8 @6884
    t1_builder_funcs @6885 DATA
    t1_cmap_classes @6886 DATA
    t1_cmap_custom_class_rec @6887 DATA
    t1_cmap_expert_class_rec @6888 DATA
    t1_cmap_standard_class_rec @6889 DATA
    t1_cmap_unicode_class_rec @6890 DATA
    t1_decoder_funcs @6891 DATA
    t1_driver_class @6892 DATA
    t1_expert_encoding @6893 DATA
    t1_standard_encoding @6894 DATA
    t1cid_driver_class @6895 DATA
    t42_driver_class @6896 DATA
    thread_print @6897
    thread_print_set @6898
    tt_cmap0_class_rec @6899 DATA
    tt_cmap10_class_rec @6900 DATA
    tt_cmap12_class_rec @6901 DATA
    tt_cmap13_class_rec @6902 DATA
    tt_cmap14_class_rec @6903 DATA
    tt_cmap2_class_rec @6904 DATA
    tt_cmap4_class_rec @6905 DATA
    tt_cmap6_class_rec @6906 DATA
    tt_cmap8_class_rec @6907 DATA
    tt_cmap_unicode_class_rec @6908 DATA
    tt_default_graphics_state @6909 DATA
    tt_driver_class @6910 DATA
    unlink_utf8 @6911
    utime_utf8 @6912
    vfprintf_utf8 @6913
    vorbis_analysis @6914
    vorbis_analysis_blockout @6915
    vorbis_analysis_buffer @6916
    vorbis_analysis_headerout @6917
    vorbis_analysis_init @6918
    vorbis_analysis_wrote @6919
    vorbis_bitrate_addblock @6920
    vorbis_bitrate_clear @6921
    vorbis_bitrate_flushpacket @6922
    vorbis_bitrate_init @6923
    vorbis_bitrate_managed @6924
    vorbis_block_clear @6925
    vorbis_block_init @6926
    vorbis_book_clear @6927
    vorbis_book_codelen @6928
    vorbis_book_codeword @6929
    vorbis_book_decode @6930
    vorbis_book_decodev_add @6931
    vorbis_book_decodev_set @6932
    vorbis_book_decodevs_add @6933
    vorbis_book_decodevv_add @6934
    vorbis_book_encode @6935
    vorbis_book_init_decode @6936
    vorbis_book_init_encode @6937
    vorbis_comment_add @6938
    vorbis_comment_add_tag @6939
    vorbis_comment_clear @6940
    vorbis_comment_init @6941
    vorbis_comment_query @6942
    vorbis_comment_query_count @6943
    vorbis_commentheader_out @6944
    vorbis_dsp_clear @6945
    vorbis_encode_ctl @6946
    vorbis_encode_init @6947
    vorbis_encode_init_vbr @6948
    vorbis_encode_setup_init @6949
    vorbis_encode_setup_managed @6950
    vorbis_encode_setup_vbr @6951
    vorbis_granule_time @6952
    vorbis_info_blocksize @6953
    vorbis_info_clear @6954
    vorbis_info_init @6955
    vorbis_lpc_from_data @6956
    vorbis_lpc_predict @6957
    vorbis_lpc_to_lsp @6958
    vorbis_lsp_to_curve @6959
    vorbis_packet_blocksize @6960
    vorbis_staticbook_destroy @6961
    vorbis_staticbook_pack @6962
    vorbis_staticbook_unpack @6963
    vorbis_synthesis @6964
    vorbis_synthesis_blockin @6965
    vorbis_synthesis_halfrate @6966
    vorbis_synthesis_halfrate_p @6967
    vorbis_synthesis_headerin @6968
    vorbis_synthesis_idheader @6969
    vorbis_synthesis_init @6970
    vorbis_synthesis_lapout @6971
    vorbis_synthesis_pcmout @6972
    vorbis_synthesis_read @6973
    vorbis_synthesis_restart @6974
    vorbis_synthesis_trackonly @6975
    vorbis_version_string @6976
    vorbis_window @6977
    wglewGetExtension @6978
    wglewInit @6979
    wglewIsSupported @6980
    win_get_console_width @6981
    winfnt_driver_class @6982 DATA
